///////////////////////////////////////////////////////////////////////////////
//
// IAR C/C++ Compiler V9.10.1.2146 for 8051               11/Oct/2019  09:50:11
// Copyright 2004-2014 IAR Systems AB.
// Standalone license - IAR Embedded Workbench for 8051
//
//    Core               =  plain
//    Code model         =  banked
//    Data model         =  large
//    Calling convention =  xdata reentrant
//    Constant location  =  data_rom
//    Dptr setup         =  1,16
//                          
//    Source file        =  
//        E:\chii\ZStack-CC2530\Projects\zstack\Samples\Networking\Source\MPCoordinator.c
//    Command line       =  
//        -f
//        E:\chii\ZStack-CC2530\Projects\zstack\Samples\Networking\CC2530DB\..\..\..\Tools\CC2530DB\f8wCoord.cfg
//        (-DCPU32MHZ -DROOT=__near_func -DMAC_CFG_APP_PENDING_QUEUE=TRUE
//        -DMAC_CFG_TX_DATA_MAX=5 -DMAC_CFG_TX_MAX=8 -DMAC_CFG_RX_MAX=5
//        -DZDO_COORDINATOR -DRTR_NWK) -f
//        E:\chii\ZStack-CC2530\Projects\zstack\Samples\Networking\CC2530DB\..\..\..\Tools\CC2530DB\f8wConfig.cfg
//        (-DZIGBEEPRO -DSECURE=0 -DZG_SECURE_DYNAMIC=0 -DREFLECTOR
//        -DDEFAULT_CHANLIST=0x02000000 -DZDAPP_CONFIG_PAN_ID=0x2100
//        -DNWK_START_DELAY=100 -DEXTENDED_JOINING_RANDOM_MASK=0x007F
//        -DBEACON_REQUEST_DELAY=100 -DBEACON_REQ_DELAY_MASK=0x00FF
//        -DLINK_STATUS_JITTER_MASK=0x007F -DROUTE_EXPIRY_TIME=30
//        -DAPSC_ACK_WAIT_DURATION_POLLED=3000 -DNWK_INDIRECT_MSG_TIMEOUT=7
//        -DMAX_RREQ_ENTRIES=8 -DAPSC_MAX_FRAME_RETRIES=3
//        -DNWK_MAX_DATA_RETRIES=2 -DMAX_POLL_FAILURE_RETRIES=2 -DMAX_BCAST=9
//        -DAPS_MAX_GROUPS=16 -DMAX_RTG_ENTRIES=40 -DNWK_MAX_BINDING_ENTRIES=4
//        -DMAX_BINDING_CLUSTER_IDS=4 "-DDEFAULT_KEY={0x01, 0x03, 0x05, 0x07,
//        0x09, 0x0B, 0x0D, 0x0F, 0x00, 0x02, 0x04, 0x06, 0x08, 0x0A, 0x0C,
//        0x0D}" -DMAC_MAX_FRAME_SIZE=116 -DZDNWKMGR_MIN_TRANSMISSIONS=20
//        "-DCONST=const __code" -DGENERIC=__generic -DRFD_RCVC_ALWAYS_ON=TRUE
//        -DPOLL_RATE=1000 -DQUEUED_POLL_RATE=100 -DRESPONSE_POLL_RATE=100)
//        -DREJOIN_POLL_RATE=440
//        E:\chii\ZStack-CC2530\Projects\zstack\Samples\Networking\Source\MPCoordinator.c
//        -D HOLD_AUTO_START -D BUILD_ALL_DEVICES -D REFLECTOR -D NV_INIT -D
//        xNV_RESTORE -D ZTOOL_P1 -D MT_TASK -D MT_SYS_FUNC -D xMT_SAPI_FUNC -D
//        xMT_SAPI_CB_FUNC -lC
//        E:\chii\ZStack-CC2530\Projects\zstack\Samples\Networking\CC2530DB\MPCoordinator\List\
//        -lA
//        E:\chii\ZStack-CC2530\Projects\zstack\Samples\Networking\CC2530DB\MPCoordinator\List\
//        --diag_suppress Pe001,Pa010 -o
//        E:\chii\ZStack-CC2530\Projects\zstack\Samples\Networking\CC2530DB\MPCoordinator\Obj\
//        -e --no_code_motion --debug --core=plain --dptr=16,1
//        --data_model=large --code_model=banked
//        --calling_convention=xdata_reentrant --place_constants=data_rom
//        --nr_virtual_regs 8 -I
//        E:\chii\ZStack-CC2530\Projects\zstack\Samples\Networking\CC2530DB\ -I
//        E:\chii\ZStack-CC2530\Projects\zstack\Samples\Networking\CC2530DB\..\Source\
//        -I
//        E:\chii\ZStack-CC2530\Projects\zstack\Samples\Networking\CC2530DB\..\..\..\ZMain\TI2530DB\
//        -I
//        E:\chii\ZStack-CC2530\Projects\zstack\Samples\Networking\CC2530DB\..\..\..\..\..\Components\hal\include\
//        -I
//        E:\chii\ZStack-CC2530\Projects\zstack\Samples\Networking\CC2530DB\..\..\..\..\..\Components\hal\target\CC2530EB\
//        -I
//        E:\chii\ZStack-CC2530\Projects\zstack\Samples\Networking\CC2530DB\..\..\..\..\..\Components\mac\include\
//        -I
//        E:\chii\ZStack-CC2530\Projects\zstack\Samples\Networking\CC2530DB\..\..\..\..\..\Components\mac\high_level\
//        -I
//        E:\chii\ZStack-CC2530\Projects\zstack\Samples\Networking\CC2530DB\..\..\..\..\..\Components\mac\low_level\srf04\
//        -I
//        E:\chii\ZStack-CC2530\Projects\zstack\Samples\Networking\CC2530DB\..\..\..\..\..\Components\mac\low_level\srf04\single_chip\
//        -I
//        E:\chii\ZStack-CC2530\Projects\zstack\Samples\Networking\CC2530DB\..\..\..\..\..\Components\mt\
//        -I
//        E:\chii\ZStack-CC2530\Projects\zstack\Samples\Networking\CC2530DB\..\..\..\..\..\Components\osal\include\
//        -I
//        E:\chii\ZStack-CC2530\Projects\zstack\Samples\Networking\CC2530DB\..\..\..\..\..\Components\osal\mcu\ccsoc\
//        -I
//        E:\chii\ZStack-CC2530\Projects\zstack\Samples\Networking\CC2530DB\..\..\..\..\..\Components\services\saddr\
//        -I
//        E:\chii\ZStack-CC2530\Projects\zstack\Samples\Networking\CC2530DB\..\..\..\..\..\Components\services\sdata\
//        -I
//        E:\chii\ZStack-CC2530\Projects\zstack\Samples\Networking\CC2530DB\..\..\..\..\..\Components\stack\af\
//        -I
//        E:\chii\ZStack-CC2530\Projects\zstack\Samples\Networking\CC2530DB\..\..\..\..\..\Components\stack\nwk\
//        -I
//        E:\chii\ZStack-CC2530\Projects\zstack\Samples\Networking\CC2530DB\..\..\..\..\..\Components\stack\sapi\
//        -I
//        E:\chii\ZStack-CC2530\Projects\zstack\Samples\Networking\CC2530DB\..\..\..\..\..\Components\stack\sec\
//        -I
//        E:\chii\ZStack-CC2530\Projects\zstack\Samples\Networking\CC2530DB\..\..\..\..\..\Components\stack\sys\
//        -I
//        E:\chii\ZStack-CC2530\Projects\zstack\Samples\Networking\CC2530DB\..\..\..\..\..\Components\stack\zdo\
//        -I
//        E:\chii\ZStack-CC2530\Projects\zstack\Samples\Networking\CC2530DB\..\..\..\..\..\Components\zmac\
//        -I
//        E:\chii\ZStack-CC2530\Projects\zstack\Samples\Networking\CC2530DB\..\..\..\..\..\Components\zmac\f8w\
//        -Ohz --require_prototypes
//    List file          =  
//        E:\chii\ZStack-CC2530\Projects\zstack\Samples\Networking\CC2530DB\MPCoordinator\List\MPCoordinator.s51
//
///////////////////////////////////////////////////////////////////////////////

        NAME MPCoordinator

        RTMODEL "__SystemLibrary", "CLib"
        RTMODEL "__calling_convention", "xdata_reentrant"
        RTMODEL "__code_model", "banked"
        RTMODEL "__core", "plain"
        RTMODEL "__data_model", "large"
        RTMODEL "__dptr_size", "16"
        RTMODEL "__extended_stack", "disabled"
        RTMODEL "__iar_require _formatted_write", "flags,int_specials,widths"
        RTMODEL "__location_for_constants", "data"
        RTMODEL "__number_of_dptrs", "1"
        RTMODEL "__rt_version", "1"

        RSEG DOVERLAY:DATA:NOROOT(0)
        RSEG IOVERLAY:IDATA:NOROOT(0)
        RSEG ISTACK:IDATA:NOROOT(0)
        RSEG PSTACK:XDATA:NOROOT(0)
        RSEG XSTACK:XDATA:NOROOT(0)

        EXTERN ?V0
        EXTERN ?V1
        EXTERN ?V2
        EXTERN ?V3
        EXTERN ?V4
        EXTERN ?V5
        EXTERN ?V6
        EXTERN ?V7
        EXTERN ?ALLOC_XSTACK8
        EXTERN ?BANKED_ENTER_XDATA
        EXTERN ?BANKED_LEAVE_XDATA
        EXTERN ?BDISPATCH
        EXTERN ?BRET
        EXTERN ?DEALLOC_XSTACK8
        EXTERN ?PUSH_XSTACK_I_TWO
        EXTERN ?US_SWITCH_DENSE
        EXTERN ?XSP
        EXTERN ?XSTACK_DISP0_8
        EXTERN ?XSTACK_DISP101_8
        EXTERN ?XSTACK_DISP102_8
        EXTERN __INIT_XDATA_I
        EXTERN __INIT_XDATA_Z

        PUBLIC ??NodeUartCallBack?relay
        FUNCTION ??NodeUartCallBack?relay,0203H
        PUBLIC ??NodeUartInit?relay
        FUNCTION ??NodeUartInit?relay,0203H
        PUBLIC ??zb_AllowBindConfirm?relay
        FUNCTION ??zb_AllowBindConfirm?relay,0203H
        PUBLIC ??zb_BindConfirm?relay
        FUNCTION ??zb_BindConfirm?relay,0203H
        PUBLIC ??zb_FindDeviceConfirm?relay
        FUNCTION ??zb_FindDeviceConfirm?relay,0203H
        PUBLIC ??zb_HanderMsg?relay
        FUNCTION ??zb_HanderMsg?relay,0203H
        PUBLIC ??zb_HandleKeys?relay
        FUNCTION ??zb_HandleKeys?relay,0203H
        PUBLIC ??zb_HandleOsalEvent?relay
        FUNCTION ??zb_HandleOsalEvent?relay,0203H
        PUBLIC ??zb_ReceiveDataIndication?relay
        FUNCTION ??zb_ReceiveDataIndication?relay,0203H
        PUBLIC ??zb_SendDataConfirm?relay
        FUNCTION ??zb_SendDataConfirm?relay,0203H
        PUBLIC ??zb_StartConfirm?relay
        FUNCTION ??zb_StartConfirm?relay,0203H
        PUBLIC NodeUartCallBack
        FUNCTION NodeUartCallBack,0a1603H
        ARGFRAME XSTACK, 0, STACK
        LOCFRAME ISTACK, 1, STACK
        LOCFRAME XSTACK, 11, STACK
        PUBLIC NodeUartInit
        FUNCTION NodeUartInit,021203H
        ARGFRAME XSTACK, 2, STACK
        ARGFRAME IOVERLAY, 0, STATIC
        ARGFRAME DOVERLAY, 0, STATIC
        LOCFRAME ISTACK, 2, STACK
        LOCFRAME XSTACK, 29, STACK
        PUBLIC zb_AllowBindConfirm
        FUNCTION zb_AllowBindConfirm,0203H
        ARGFRAME XSTACK, 0, STACK
        PUBLIC zb_BindConfirm
        FUNCTION zb_BindConfirm,0203H
        ARGFRAME XSTACK, 0, STACK
        PUBLIC zb_FindDeviceConfirm
        FUNCTION zb_FindDeviceConfirm,0203H
        ARGFRAME XSTACK, 0, STACK
        PUBLIC zb_HanderMsg
        FUNCTION zb_HanderMsg,0203H
        ARGFRAME XSTACK, 0, STACK
        PUBLIC zb_HandleKeys
        FUNCTION zb_HandleKeys,0203H
        ARGFRAME XSTACK, 0, STACK
        PUBLIC zb_HandleOsalEvent
        FUNCTION zb_HandleOsalEvent,021203H
        ARGFRAME XSTACK, 0, STACK
        LOCFRAME ISTACK, 2, STACK
        LOCFRAME XSTACK, 2, STACK
        PUBLIC zb_InCmdList
        PUBLIC zb_OutCmdList
        PUBLIC zb_ReceiveDataIndication
        FUNCTION zb_ReceiveDataIndication,0a1203H
        ARGFRAME XSTACK, 4, STACK
        LOCFRAME XSTACK, 152, STACK
        PUBLIC zb_SendDataConfirm
        FUNCTION zb_SendDataConfirm,0203H
        ARGFRAME XSTACK, 0, STACK
        PUBLIC zb_SimpleDesc
        PUBLIC zb_StartConfirm
        FUNCTION zb_StartConfirm,021203H
        ARGFRAME XSTACK, 0, STACK
        LOCFRAME XSTACK, 9, STACK
        
          CFI Names cfiNames0
          CFI StackFrame CFA_SP SP IDATA
          CFI StackFrame CFA_PSP16 PSP16 XDATA
          CFI StackFrame CFA_XSP16 XSP16 XDATA
          CFI StaticOverlayFrame CFA_IOVERLAY IOVERLAY
          CFI StaticOverlayFrame CFA_DOVERLAY DOVERLAY
          CFI Resource `PSW.CY`:1, `B.BR0`:1, `B.BR1`:1, `B.BR2`:1, `B.BR3`:1
          CFI Resource `B.BR4`:1, `B.BR5`:1, `B.BR6`:1, `B.BR7`:1, `VB.BR8`:1
          CFI Resource `VB.BR9`:1, `VB.BR10`:1, `VB.BR11`:1, `VB.BR12`:1
          CFI Resource `VB.BR13`:1, `VB.BR14`:1, `VB.BR15`:1, VB:8, B:8, A:8
          CFI Resource PSW:8, DPL0:8, DPH0:8, R0:8, R1:8, R2:8, R3:8, R4:8, R5:8
          CFI Resource R6:8, R7:8, V0:8, V1:8, V2:8, V3:8, V4:8, V5:8, V6:8, V7:8
          CFI Resource SP:8, PSPH:8, PSPL:8, PSP16:16, XSPH:8, XSPL:8, XSP16:16
          CFI VirtualResource ?RET:24
          CFI Resource ?BRET_EXT:8
          CFI VirtualResource ?RET_HIGH:8, ?RET_LOW:8
          CFI ResourceParts PSP16 PSPH, PSPL
          CFI ResourceParts XSP16 XSPH, XSPL
          CFI ResourceParts ?RET ?BRET_EXT, ?RET_HIGH, ?RET_LOW
          CFI EndNames cfiNames0
        
          CFI Common cfiCommon0 Using cfiNames0
          CFI CodeAlign 1
          CFI DataAlign -1
          CFI ReturnAddress ?RET CODE
          CFI CFA_DOVERLAY Used
          CFI CFA_IOVERLAY Used
          CFI CFA_SP SP+-3
          CFI CFA_PSP16 PSP16+0
          CFI CFA_XSP16 XSP16+0
          CFI `PSW.CY` SameValue
          CFI `B.BR0` SameValue
          CFI `B.BR1` SameValue
          CFI `B.BR2` SameValue
          CFI `B.BR3` SameValue
          CFI `B.BR4` SameValue
          CFI `B.BR5` SameValue
          CFI `B.BR6` SameValue
          CFI `B.BR7` SameValue
          CFI `VB.BR8` SameValue
          CFI `VB.BR9` SameValue
          CFI `VB.BR10` SameValue
          CFI `VB.BR11` SameValue
          CFI `VB.BR12` SameValue
          CFI `VB.BR13` SameValue
          CFI `VB.BR14` SameValue
          CFI `VB.BR15` SameValue
          CFI VB SameValue
          CFI B Undefined
          CFI A Undefined
          CFI PSW SameValue
          CFI DPL0 SameValue
          CFI DPH0 SameValue
          CFI R0 Undefined
          CFI R1 Undefined
          CFI R2 Undefined
          CFI R3 Undefined
          CFI R4 Undefined
          CFI R5 Undefined
          CFI R6 SameValue
          CFI R7 SameValue
          CFI V0 SameValue
          CFI V1 SameValue
          CFI V2 SameValue
          CFI V3 SameValue
          CFI V4 SameValue
          CFI V5 SameValue
          CFI V6 SameValue
          CFI V7 SameValue
          CFI PSPH Undefined
          CFI PSPL Undefined
          CFI XSPH Undefined
          CFI XSPL Undefined
          CFI ?RET Concat
          CFI ?BRET_EXT Frame(CFA_SP, 3)
          CFI ?RET_HIGH Frame(CFA_SP, 2)
          CFI ?RET_LOW Frame(CFA_SP, 1)
          CFI EndCommon cfiCommon0
        
        
          CFI Common cfiCommon1 Using cfiNames0
          CFI CodeAlign 1
          CFI DataAlign -1
          CFI ReturnAddress ?RET CODE
          CFI CFA_DOVERLAY Used
          CFI CFA_IOVERLAY Used
          CFI CFA_SP SP+-2
          CFI CFA_PSP16 PSP16+0
          CFI CFA_XSP16 XSP16+0
          CFI `PSW.CY` SameValue
          CFI `B.BR0` SameValue
          CFI `B.BR1` SameValue
          CFI `B.BR2` SameValue
          CFI `B.BR3` SameValue
          CFI `B.BR4` SameValue
          CFI `B.BR5` SameValue
          CFI `B.BR6` SameValue
          CFI `B.BR7` SameValue
          CFI `VB.BR8` SameValue
          CFI `VB.BR9` SameValue
          CFI `VB.BR10` SameValue
          CFI `VB.BR11` SameValue
          CFI `VB.BR12` SameValue
          CFI `VB.BR13` SameValue
          CFI `VB.BR14` SameValue
          CFI `VB.BR15` SameValue
          CFI VB SameValue
          CFI B SameValue
          CFI A SameValue
          CFI PSW SameValue
          CFI DPL0 SameValue
          CFI DPH0 SameValue
          CFI R0 SameValue
          CFI R1 SameValue
          CFI R2 SameValue
          CFI R3 SameValue
          CFI R4 SameValue
          CFI R5 SameValue
          CFI R6 SameValue
          CFI R7 SameValue
          CFI V0 SameValue
          CFI V1 SameValue
          CFI V2 SameValue
          CFI V3 SameValue
          CFI V4 SameValue
          CFI V5 SameValue
          CFI V6 SameValue
          CFI V7 SameValue
          CFI PSPH Undefined
          CFI PSPL Undefined
          CFI XSPH Undefined
          CFI XSPL Undefined
          CFI ?RET Concat
          CFI ?BRET_EXT SameValue
          CFI ?RET_HIGH Frame(CFA_SP, 2)
          CFI ?RET_LOW Frame(CFA_SP, 1)
          CFI EndCommon cfiCommon1
        
HalLedSet           SYMBOL "HalLedSet"
??HalLedSet?relay   SYMBOL "?relay", HalLedSet
HalUARTOpen         SYMBOL "HalUARTOpen"
??HalUARTOpen?relay SYMBOL "?relay", HalUARTOpen
HalUARTRead         SYMBOL "HalUARTRead"
??HalUARTRead?relay SYMBOL "?relay", HalUARTRead
HalUARTWrite        SYMBOL "HalUARTWrite"
??HalUARTWrite?relay SYMBOL "?relay", HalUARTWrite
Hal_UART_RxBufLen   SYMBOL "Hal_UART_RxBufLen"
??Hal_UART_RxBufLen?relay SYMBOL "?relay", Hal_UART_RxBufLen
osal_start_timerEx  SYMBOL "osal_start_timerEx"
??osal_start_timerEx?relay SYMBOL "?relay", osal_start_timerEx
sprintf             SYMBOL "sprintf"
??sprintf?relay     SYMBOL "?relay", sprintf
zb_ReadConfiguration SYMBOL "zb_ReadConfiguration"
??zb_ReadConfiguration?relay SYMBOL "?relay", zb_ReadConfiguration
zb_WriteConfiguration SYMBOL "zb_WriteConfiguration"
??zb_WriteConfiguration?relay SYMBOL "?relay", zb_WriteConfiguration
NodeUartCallBack    SYMBOL "NodeUartCallBack"
??NodeUartCallBack?relay SYMBOL "?relay", NodeUartCallBack
NodeUartInit        SYMBOL "NodeUartInit"
??NodeUartInit?relay SYMBOL "?relay", NodeUartInit
zb_AllowBindConfirm SYMBOL "zb_AllowBindConfirm"
??zb_AllowBindConfirm?relay SYMBOL "?relay", zb_AllowBindConfirm
zb_BindConfirm      SYMBOL "zb_BindConfirm"
??zb_BindConfirm?relay SYMBOL "?relay", zb_BindConfirm
zb_FindDeviceConfirm SYMBOL "zb_FindDeviceConfirm"
??zb_FindDeviceConfirm?relay SYMBOL "?relay", zb_FindDeviceConfirm
zb_HanderMsg        SYMBOL "zb_HanderMsg"
??zb_HanderMsg?relay SYMBOL "?relay", zb_HanderMsg
zb_HandleKeys       SYMBOL "zb_HandleKeys"
??zb_HandleKeys?relay SYMBOL "?relay", zb_HandleKeys
zb_HandleOsalEvent  SYMBOL "zb_HandleOsalEvent"
??zb_HandleOsalEvent?relay SYMBOL "?relay", zb_HandleOsalEvent
zb_ReceiveDataIndication SYMBOL "zb_ReceiveDataIndication"
??zb_ReceiveDataIndication?relay SYMBOL "?relay", zb_ReceiveDataIndication
zb_SendDataConfirm  SYMBOL "zb_SendDataConfirm"
??zb_SendDataConfirm?relay SYMBOL "?relay", zb_SendDataConfirm
zb_StartConfirm     SYMBOL "zb_StartConfirm"
??zb_StartConfirm?relay SYMBOL "?relay", zb_StartConfirm

        EXTERN ??HalLedSet?relay
        FUNCTION ??HalLedSet?relay,00H
        EXTERN ??HalUARTOpen?relay
        FUNCTION ??HalUARTOpen?relay,00H
        EXTERN ??HalUARTRead?relay
        FUNCTION ??HalUARTRead?relay,00H
        EXTERN ??HalUARTWrite?relay
        FUNCTION ??HalUARTWrite?relay,00H
        EXTERN ??Hal_UART_RxBufLen?relay
        FUNCTION ??Hal_UART_RxBufLen?relay,00H
        EXTERN ??osal_start_timerEx?relay
        FUNCTION ??osal_start_timerEx?relay,00H
        EXTERN ??sprintf?relay
        FUNCTION ??sprintf?relay,00H
        EXTERN ??zb_ReadConfiguration?relay
        FUNCTION ??zb_ReadConfiguration?relay,00H
        EXTERN ??zb_WriteConfiguration?relay
        FUNCTION ??zb_WriteConfiguration?relay,00H
        EXTERN HalLedSet
        FUNCTION HalLedSet,0202H
        ARGFRAME ISTACK, 2, STACK
        ARGFRAME PSTACK, 0, STACK
        ARGFRAME XSTACK, 144, STACK
        ARGFRAME IOVERLAY, 0, STATIC
        ARGFRAME DOVERLAY, 0, STATIC
        EXTERN HalUARTOpen
        FUNCTION HalUARTOpen,0202H
        ARGFRAME ISTACK, 2, STACK
        ARGFRAME PSTACK, 0, STACK
        ARGFRAME XSTACK, 29, STACK
        ARGFRAME IOVERLAY, 0, STATIC
        ARGFRAME DOVERLAY, 0, STATIC
        EXTERN HalUARTRead
        FUNCTION HalUARTRead,0202H
        ARGFRAME ISTACK, 0, STACK
        ARGFRAME PSTACK, 0, STACK
        ARGFRAME XSTACK, 11, STACK
        ARGFRAME IOVERLAY, 0, STATIC
        ARGFRAME DOVERLAY, 0, STATIC
        EXTERN HalUARTWrite
        FUNCTION HalUARTWrite,0202H
        ARGFRAME ISTACK, 0, STACK
        ARGFRAME PSTACK, 0, STACK
        ARGFRAME XSTACK, 144, STACK
        ARGFRAME IOVERLAY, 0, STATIC
        ARGFRAME DOVERLAY, 0, STATIC
        EXTERN Hal_UART_RxBufLen
        FUNCTION Hal_UART_RxBufLen,0202H
        ARGFRAME ISTACK, 0, STACK
        ARGFRAME PSTACK, 0, STACK
        ARGFRAME XSTACK, 11, STACK
        ARGFRAME IOVERLAY, 0, STATIC
        ARGFRAME DOVERLAY, 0, STATIC
        EXTERN osal_start_timerEx
        FUNCTION osal_start_timerEx,0202H
        ARGFRAME ISTACK, 0, STACK
        ARGFRAME PSTACK, 0, STACK
        ARGFRAME XSTACK, 9, STACK
        ARGFRAME IOVERLAY, 0, STATIC
        ARGFRAME DOVERLAY, 0, STATIC
        EXTERN sapi_TaskID
        EXTERN sprintf
        FUNCTION sprintf,0202H
        ARGFRAME ISTACK, 0, STACK
        ARGFRAME PSTACK, 0, STACK
        ARGFRAME XSTACK, 152, STACK
        ARGFRAME IOVERLAY, 0, STATIC
        ARGFRAME DOVERLAY, 0, STATIC
        EXTERN zb_ReadConfiguration
        FUNCTION zb_ReadConfiguration,0202H
        ARGFRAME ISTACK, 2, STACK
        ARGFRAME PSTACK, 0, STACK
        ARGFRAME XSTACK, 2, STACK
        ARGFRAME IOVERLAY, 0, STATIC
        ARGFRAME DOVERLAY, 0, STATIC
        EXTERN zb_WriteConfiguration
        FUNCTION zb_WriteConfiguration,0202H
        ARGFRAME ISTACK, 2, STACK
        ARGFRAME PSTACK, 0, STACK
        ARGFRAME XSTACK, 2, STACK
        ARGFRAME IOVERLAY, 0, STATIC
        ARGFRAME DOVERLAY, 0, STATIC

// E:\chii\ZStack-CC2530\Projects\zstack\Samples\Networking\Source\MPCoordinator.c
//    1 
//    2 /**************************************************************************************************
//    3 Filename:       SimpleApp.c
//    4 Revised:        $Date: 2007-12-04 11:46:18 -0800 (Tue, 04 Dec 2007) $
//    5 Revision:       $Revision: 16007 $
//    6 
//    7 Description:    Sample application utilizing the Simple API.
//    8 
//    9 
//   10 Copyright 2007 Texas Instruments Incorporated. All rights reserved.
//   11 
//   12 IMPORTANT: Your use of this Software is limited to those specific rights
//   13 granted under the terms of a software license agreement between the user
//   14 who downloaded the software, his/her employer (which must be your employer)
//   15 and Texas Instruments Incorporated (the "License").  You may not use this
//   16 Software unless you agree to abide by the terms of the License. The License
//   17 limits your use, and you acknowledge, that the Software may not be modified,
//   18 copied or distributed unless embedded on a Texas Instruments microcontroller
//   19 or used solely and exclusively in conjunction with a Texas Instruments radio
//   20 frequency transceiver, which is integrated into your product.  Other than for
//   21 the foregoing purpose, you may not use, reproduce, copy, prepare derivative
//   22 works of, modify, distribute, perform, display or sell this Software and/or
//   23 its documentation for any purpose.
//   24 
//   25 YOU FURTHER ACKNOWLEDGE AND AGREE THAT THE SOFTWARE AND DOCUMENTATION ARE
//   26 PROVIDED AS IS?WITHOUT WARRANTY OF ANY KIND, EITHER EXPRESS OR IMPLIED, 
//   27 INCLUDING WITHOUT LIMITATION, ANY WARRANTY OF MERCHANTABILITY, TITLE, 
//   28 NON-INFRINGEMENT AND FITNESS FOR A PARTICULAR PURPOSE. IN NO EVENT SHALL
//   29 TEXAS INSTRUMENTS OR ITS LICENSORS BE LIABLE OR OBLIGATED UNDER CONTRACT,
//   30 NEGLIGENCE, STRICT LIABILITY, CONTRIBUTION, BREACH OF WARRANTY, OR OTHER
//   31 LEGAL EQUITABLE THEORY ANY DIRECT OR INDIRECT DAMAGES OR EXPENSES
//   32 INCLUDING BUT NOT LIMITED TO ANY INCIDENTAL, SPECIAL, INDIRECT, PUNITIVE
//   33 OR CONSEQUENTIAL DAMAGES, LOST PROFITS OR LOST DATA, COST OF PROCUREMENT
//   34 OF SUBSTITUTE GOODS, TECHNOLOGY, SERVICES, OR ANY CLAIMS BY THIRD PARTIES
//   35 (INCLUDING BUT NOT LIMITED TO ANY DEFENSE THEREOF), OR OTHER SIMILAR COSTS.
//   36 
//   37 Should you have any questions regarding your right to use this Software,
//   38 contact Texas Instruments Incorporated at www.TI.com. 
//   39 **************************************************************************************************/
//   40 
//   41 /******************************************************************************
//   42 * INCLUDES
//   43 */
//   44 
//   45 #include "ZComDef.h"
//   46 #include "OSAL.h"
//   47 #include "sapi.h"
//   48 #include "hal_key.h"
//   49 #include "hal_led.h"
//   50 #include "DebugTrace.h"
//   51 #include "SimpleApp.h"
//   52 
//   53 #if defined( MT_TASK )
//   54 #include "osal_nv.h"
//   55 #endif
//   56 #include "mt_app.h"
//   57 #include "mt_uart.h"
//   58 #include "mt.h"
//   59 
//   60 
//   61 /*********************************************************************
//   62 * CONSTANTS
//   63 */
//   64 
//   65 // Application States
//   66 #define APP_INIT                           0
//   67 #define APP_START                          1
//   68 
//   69 // Application osal event identifiers
//   70 #define MY_START_EVT                0x0001
//   71 
//   72 // Same definitions as in SimpleSensor.c
//   73 #define TEMP_REPORT     0x01
//   74 #define BATTERY_REPORT 0x02
//   75 /*********************************************************************
//   76 * TYPEDEFS
//   77 */
//   78 
//   79 /*********************************************************************
//   80 * LOCAL VARIABLES
//   81 */

        RSEG XDATA_Z:XDATA:NOROOT(0)
        DATA16
//   82 static int flag=0;
flag:
        DS 2
        REQUIRE __INIT_XDATA_Z
//   83 

        RSEG XDATA_Z:XDATA:NOROOT(0)
        DATA8
//   84 static uint8 myAppState = APP_INIT;
myAppState:
        DS 1
        REQUIRE __INIT_XDATA_Z

        RSEG XDATA_I:XDATA:NOROOT(0)
//   85 static uint8 myStartRetryDelay = 10;
myStartRetryDelay:
        DATA8
        DS 1
        REQUIRE `?<Initializer for myStartRetryDelay>`
        REQUIRE __INIT_XDATA_I
//   86 
//   87 #if defined( MT_TASK )
//   88 extern uint8 aExtendedAddress[8];
//   89 #endif
//   90 
//   91 void zb_HanderMsg(osal_event_hdr_t *pMsg);
//   92 /*********************************************************************
//   93 * GLOBAL VARIABLES
//   94 */
//   95 void NodeUartInit(void);
//   96 void NodeUartCallBack ( uint8 port, uint8 event );
//   97 // Inputs and Outputs for Switch device
//   98 #define NUM_OUT_CMD_COLLECTOR                2
//   99 #define NUM_IN_CMD_COLLECTOR                 3
//  100 
//  101 // List of output and input commands for Switch device

        RSEG XDATA_ROM_C:CONST:REORDER:NOROOT(0)
        DATA8
//  102 const cId_t zb_InCmdList[NUM_IN_CMD_COLLECTOR] =
zb_InCmdList:
        DATA16
        DW 32769
        DW 32770
        DW 3
//  103 {
//  104 	ID_CMD_READ_RES,
//  105 	ID_CMD_WRITE_RES,
//  106 	ID_CMD_REPORT,
//  107 };

        RSEG XDATA_ROM_C:CONST:REORDER:NOROOT(0)
        DATA32
//  108 const cId_t zb_OutCmdList[NUM_OUT_CMD_COLLECTOR] =
zb_OutCmdList:
        DATA16
        DW 1
        DW 2
//  109 {
//  110 	ID_CMD_READ_REQ,
//  111 	ID_CMD_WRITE_REQ,
//  112 };
//  113 
//  114 // Define SimpleDescriptor for Switch device

        RSEG XDATA_ROM_C:CONST:REORDER:NOROOT(0)
        DATA8
//  115 const SimpleDescriptionFormat_t zb_SimpleDesc =
zb_SimpleDesc:
        DB 2
        DATA16
        DW 3856
        DW 0
        DATA8
        DB 1
        DB 3
        DATA16
        DW zb_InCmdList
        DATA8
        DB 2
        DATA16
        DW zb_OutCmdList
//  116 {
//  117 	MY_ENDPOINT_ID,             //  Endpoint
//  118 	MY_PROFILE_ID,              //  Profile ID
//  119 	DEV_ID_COLLECTOR,          //  Device ID
//  120 	DEVICE_VERSION_COLLECTOR,  //  Device Version
//  121 	0,                          //  Reserved
//  122 	NUM_IN_CMD_COLLECTOR,      //  Number of Input Commands
//  123 	(cId_t *) zb_InCmdList,     //  Input Command List
//  124 	NUM_OUT_CMD_COLLECTOR,     //  Number of Output Commands
//  125 	(cId_t *) zb_OutCmdList              //  Output Command List
//  126 };
//  127 
//  128 /******************************************************************************
//  129 * @fn          zb_HandleOsalEvent
//  130 *
//  131 * @brief       The zb_HandleOsalEvent function is called by the operating
//  132 *              system when a task event is set
//  133 *
//  134 * @param       event - Bitmask containing the events that have been set
//  135 *
//  136 * @return      none
//  137 */

        RSEG BANKED_CODE:CODE:NOROOT(0)
//  138 void zb_HandleOsalEvent( uint16 event )
zb_HandleOsalEvent:
          CFI Block cfiBlock0 Using cfiCommon0
          CFI Function zb_HandleOsalEvent
        CODE
//  139 {
        FUNCALL zb_HandleOsalEvent, zb_ReadConfiguration
        LOCFRAME ISTACK, 2, STACK
        LOCFRAME PSTACK, 0, STACK
        LOCFRAME XSTACK, 2, STACK
        LOCFRAME IOVERLAY, 0, STATIC
        LOCFRAME DOVERLAY, 0, STATIC
        ARGFRAME ISTACK, 2, STACK
        ARGFRAME PSTACK, 0, STACK
        ARGFRAME XSTACK, 2, STACK
        ARGFRAME IOVERLAY, 0, STATIC
        ARGFRAME DOVERLAY, 0, STATIC
        FUNCALL zb_HandleOsalEvent, zb_WriteConfiguration
        LOCFRAME ISTACK, 2, STACK
        LOCFRAME PSTACK, 0, STACK
        LOCFRAME XSTACK, 2, STACK
        LOCFRAME IOVERLAY, 0, STATIC
        LOCFRAME DOVERLAY, 0, STATIC
        ARGFRAME ISTACK, 2, STACK
        ARGFRAME PSTACK, 0, STACK
        ARGFRAME XSTACK, 2, STACK
        ARGFRAME IOVERLAY, 0, STATIC
        ARGFRAME DOVERLAY, 0, STATIC
        FUNCALL zb_HandleOsalEvent, zb_ReadConfiguration
        LOCFRAME ISTACK, 2, STACK
        LOCFRAME PSTACK, 0, STACK
        LOCFRAME XSTACK, 2, STACK
        LOCFRAME IOVERLAY, 0, STATIC
        LOCFRAME DOVERLAY, 0, STATIC
        ARGFRAME ISTACK, 2, STACK
        ARGFRAME PSTACK, 0, STACK
        ARGFRAME XSTACK, 2, STACK
        ARGFRAME IOVERLAY, 0, STATIC
        ARGFRAME DOVERLAY, 0, STATIC
        FUNCALL zb_HandleOsalEvent, zb_WriteConfiguration
        LOCFRAME ISTACK, 2, STACK
        LOCFRAME PSTACK, 0, STACK
        LOCFRAME XSTACK, 2, STACK
        LOCFRAME IOVERLAY, 0, STATIC
        LOCFRAME DOVERLAY, 0, STATIC
        ARGFRAME ISTACK, 2, STACK
        ARGFRAME PSTACK, 0, STACK
        ARGFRAME XSTACK, 2, STACK
        ARGFRAME IOVERLAY, 0, STATIC
        ARGFRAME DOVERLAY, 0, STATIC
        FUNCALL zb_HandleOsalEvent, HalLedSet
        LOCFRAME ISTACK, 2, STACK
        LOCFRAME PSTACK, 0, STACK
        LOCFRAME XSTACK, 2, STACK
        LOCFRAME IOVERLAY, 0, STATIC
        LOCFRAME DOVERLAY, 0, STATIC
        ARGFRAME ISTACK, 2, STACK
        ARGFRAME PSTACK, 0, STACK
        ARGFRAME XSTACK, 2, STACK
        ARGFRAME IOVERLAY, 0, STATIC
        ARGFRAME DOVERLAY, 0, STATIC
        FUNCALL zb_HandleOsalEvent, HalLedSet
        LOCFRAME ISTACK, 2, STACK
        LOCFRAME PSTACK, 0, STACK
        LOCFRAME XSTACK, 2, STACK
        LOCFRAME IOVERLAY, 0, STATIC
        LOCFRAME DOVERLAY, 0, STATIC
        ARGFRAME ISTACK, 2, STACK
        ARGFRAME PSTACK, 0, STACK
        ARGFRAME XSTACK, 2, STACK
        ARGFRAME IOVERLAY, 0, STATIC
        ARGFRAME DOVERLAY, 0, STATIC
        FUNCALL zb_HandleOsalEvent, NodeUartInit
        LOCFRAME ISTACK, 2, STACK
        LOCFRAME PSTACK, 0, STACK
        LOCFRAME XSTACK, 2, STACK
        LOCFRAME IOVERLAY, 0, STATIC
        LOCFRAME DOVERLAY, 0, STATIC
        ARGFRAME ISTACK, 2, STACK
        ARGFRAME PSTACK, 0, STACK
        ARGFRAME XSTACK, 2, STACK
        ARGFRAME IOVERLAY, 0, STATIC
        ARGFRAME DOVERLAY, 0, STATIC
        PUSH    DPL
          CFI DPL0 Frame(CFA_SP, 4)
          CFI CFA_SP SP+-4
        PUSH    DPH
          CFI DPH0 Frame(CFA_SP, 5)
          CFI CFA_SP SP+-5
        ; Saved register size: 2
        ; Auto size: 2
        MOV     A,#-0x2
        LCALL   ?ALLOC_XSTACK8
          CFI CFA_XSP16 add(XSP16, 2)
//  140 	uint8 startOptions;
//  141 	uint8 logicalType;
//  142 	if (event & ZB_ENTRY_EVENT) {//zigbee协议栈入口事件处理
        MOV     A,R3
        ANL     A,#0x10
        JZ      ??zb_HandleOsalEvent_0
//  143 		zb_ReadConfiguration( ZCD_NV_LOGICAL_TYPE, sizeof(uint8), &logicalType );
        ; Setup parameters for call to function zb_ReadConfiguration
        MOV     R4,?XSP + 0
        MOV     R5,?XSP + 1
        MOV     R2,#0x1
        MOV     R1,#-0x79
        LCALL   ??zb_ReadConfiguration?relay; Banked call to: zb_ReadConfiguration
//  144 		if ( logicalType != ZG_DEVICETYPE_COORDINATOR )//设置节点类型为协调器
        MOV     DPL,?XSP + 0
        MOV     DPH,?XSP + 1
        MOVX    A,@DPTR
        JZ      ??zb_HandleOsalEvent_1
//  145 		{
//  146 			logicalType = ZG_DEVICETYPE_COORDINATOR;
        CLR     A
        MOVX    @DPTR,A
//  147 			//将节点类型信息写入NV存储区
//  148 			zb_WriteConfiguration(ZCD_NV_LOGICAL_TYPE, sizeof(uint8), &logicalType);
        ; Setup parameters for call to function zb_WriteConfiguration
        MOV     R4,?XSP + 0
        MOV     R5,?XSP + 1
        MOV     R2,#0x1
        MOV     R1,#-0x79
        LCALL   ??zb_WriteConfiguration?relay; Banked call to: zb_WriteConfiguration
//  149 		}
//  150 
//  151 		// Do more configuration if necessary and then restart device with auto-start bit set
//  152 		// write endpoint to simple desc...dont pass it in start req..then reset
//  153 
//  154 
//  155 		zb_ReadConfiguration( ZCD_NV_STARTUP_OPTION, sizeof(uint8), &startOptions );
??zb_HandleOsalEvent_1:
        ; Setup parameters for call to function zb_ReadConfiguration
        MOV     A,#0x1
        LCALL   ?XSTACK_DISP102_8
        MOV     R2,#0x1
        MOV     R1,#0x3
        LCALL   ??zb_ReadConfiguration?relay; Banked call to: zb_ReadConfiguration
//  156 		if (startOptions != ZCD_STARTOPT_AUTO_START) {
        MOV     A,#0x1
        LCALL   ?XSTACK_DISP0_8
        MOVX    A,@DPTR
        XRL     A,#0x4
        JZ      ??zb_HandleOsalEvent_2
//  157 			startOptions = ZCD_STARTOPT_AUTO_START;
        MOV     A,#0x4
        MOVX    @DPTR,A
//  158 			zb_WriteConfiguration( ZCD_NV_STARTUP_OPTION, sizeof(uint8), &startOptions );
        ; Setup parameters for call to function zb_WriteConfiguration
        MOV     A,#0x1
        LCALL   ?XSTACK_DISP102_8
        MOV     R2,#0x1
        MOV     R1,#0x3
        LCALL   ??zb_WriteConfiguration?relay; Banked call to: zb_WriteConfiguration
//  159 		}
//  160 		//闪烁LED灯
//  161 		HalLedSet( HAL_LED_2, HAL_LED_MODE_OFF );
??zb_HandleOsalEvent_2:
        ; Setup parameters for call to function HalLedSet
        MOV     R2,#0x0
        MOV     R1,#0x2
        LCALL   ??HalLedSet?relay    ; Banked call to: HalLedSet
//  162 		HalLedSet( HAL_LED_2, HAL_LED_MODE_FLASH );  
        ; Setup parameters for call to function HalLedSet
        MOV     R2,#0x4
        MOV     R1,#0x2
        LCALL   ??HalLedSet?relay    ; Banked call to: HalLedSet
//  163 		NodeUartInit();
        ; Setup parameters for call to function NodeUartInit
        LCALL   ??NodeUartInit?relay ; Banked call to: NodeUartInit
//  164 	}
//  165 
//  166 }
??zb_HandleOsalEvent_0:
        MOV     A,#0x2
          CFI EndBlock cfiBlock0
        REQUIRE ?Subroutine0
        ; // Fall through to label ?Subroutine0

        RSEG BANKED_CODE:CODE:NOROOT(0)
?Subroutine0:
          CFI Block cfiBlock1 Using cfiCommon0
          CFI NoFunction
          CFI CFA_SP SP+-5
          CFI CFA_XSP16 add(XSP16, 2)
          CFI DPL0 Frame(CFA_SP, 4)
          CFI DPH0 Frame(CFA_SP, 5)
          CFI Invalid
        LCALL   ?DEALLOC_XSTACK8
          CFI CFA_XSP16 XSP16+0
          CFI Valid
        POP     DPH
          CFI CFA_SP SP+-4
          CFI DPH0 SameValue
        POP     DPL
          CFI CFA_SP SP+-3
          CFI DPL0 SameValue
        LJMP    ?BRET
          CFI EndBlock cfiBlock1
//  167 

        RSEG BANKED_CODE:CODE:NOROOT(0)
//  168 void zb_HanderMsg(osal_event_hdr_t *msg)
zb_HanderMsg:
          CFI Block cfiBlock2 Using cfiCommon0
          CFI Function zb_HanderMsg
        CODE
//  169 {
        ; Saved register size: 0
        ; Auto size: 0
//  170 
//  171 }
        LJMP    ?BRET
          CFI EndBlock cfiBlock2
//  172 
//  173 /*********************************************************************
//  174 * @fn      zb_HandleKeys
//  175 *
//  176 * @brief   Handles all key events for this device.
//  177 *
//  178 * @param   shift - true if in shift/alt.
//  179 * @param   keys - bit field for key events. Valid entries:
//  180 *                 EVAL_SW4
//  181 *                 EVAL_SW3
//  182 *                 EVAL_SW2
//  183 *                 EVAL_SW1
//  184 *
//  185 * @return  none
//  186 */

        RSEG BANKED_CODE:CODE:NOROOT(0)
//  187 void zb_HandleKeys( uint8 shift, uint8 keys )
zb_HandleKeys:
          CFI Block cfiBlock3 Using cfiCommon0
          CFI Function zb_HandleKeys
        CODE
//  188 {
        ; Saved register size: 0
        ; Auto size: 0
//  189 
//  190 
//  191 }
        LJMP    ?BRET
          CFI EndBlock cfiBlock3
//  192 /******************************************************************************
//  193 * @fn          zb_StartConfirm
//  194 *
//  195 * @brief       The zb_StartConfirm callback is called by the ZigBee stack
//  196 *              after a start request operation completes
//  197 *
//  198 * @param       status - The status of the start operation.  Status of
//  199 *                       ZB_SUCCESS indicates the start operation completed
//  200 *                       successfully.  Else the status is an error code.
//  201 *
//  202 * @return      none
//  203 */

        RSEG BANKED_CODE:CODE:NOROOT(0)
//  204 void zb_StartConfirm( uint8 status )
zb_StartConfirm:
          CFI Block cfiBlock4 Using cfiCommon0
          CFI Function zb_StartConfirm
        CODE
//  205 {
        FUNCALL zb_StartConfirm, HalLedSet
        LOCFRAME ISTACK, 0, STACK
        LOCFRAME PSTACK, 0, STACK
        LOCFRAME XSTACK, 9, STACK
        LOCFRAME IOVERLAY, 0, STATIC
        LOCFRAME DOVERLAY, 0, STATIC
        ARGFRAME ISTACK, 0, STACK
        ARGFRAME PSTACK, 0, STACK
        ARGFRAME XSTACK, 9, STACK
        ARGFRAME IOVERLAY, 0, STATIC
        ARGFRAME DOVERLAY, 0, STATIC
        FUNCALL zb_StartConfirm, osal_start_timerEx
        LOCFRAME ISTACK, 0, STACK
        LOCFRAME PSTACK, 0, STACK
        LOCFRAME XSTACK, 9, STACK
        LOCFRAME IOVERLAY, 0, STATIC
        LOCFRAME DOVERLAY, 0, STATIC
        ARGFRAME ISTACK, 0, STACK
        ARGFRAME PSTACK, 0, STACK
        ARGFRAME XSTACK, 9, STACK
        ARGFRAME IOVERLAY, 0, STATIC
        ARGFRAME DOVERLAY, 0, STATIC
        MOV     A,#-0x9
        LCALL   ?BANKED_ENTER_XDATA
          CFI DPH0 load(1, XDATA, add(CFA_XSP16, literal(-1)))
          CFI DPL0 load(1, XDATA, add(CFA_XSP16, literal(-2)))
          CFI ?BRET_EXT load(1, XDATA, add(CFA_XSP16, literal(-3)))
          CFI ?RET_HIGH load(1, XDATA, add(CFA_XSP16, literal(-4)))
          CFI ?RET_LOW load(1, XDATA, add(CFA_XSP16, literal(-5)))
          CFI R7 load(1, XDATA, add(CFA_XSP16, literal(-6)))
          CFI V0 load(1, XDATA, add(CFA_XSP16, literal(-7)))
          CFI VB load(1, XDATA, add(CFA_XSP16, literal(-8)))
          CFI R6 load(1, XDATA, add(CFA_XSP16, literal(-9)))
          CFI CFA_SP SP+0
          CFI CFA_XSP16 add(XSP16, 9)
        ; Saved register size: 9
        ; Auto size: 0
        MOV     A,R1
//  206 
//  207 	// If the device sucessfully started, change state to running
//  208 	if ( status == ZB_SUCCESS )
        JNZ     ??zb_StartConfirm_0
//  209 	{
//  210 		myAppState = APP_START;
        MOV     DPTR,#myAppState
        MOV     A,#0x1
        MOVX    @DPTR,A
//  211 		//zigbee网络成功建立，LED常亮
//  212 		HalLedSet( HAL_LED_2, HAL_LED_MODE_ON );
        ; Setup parameters for call to function HalLedSet
        MOV     R2,A
        MOV     R1,#0x2
        LCALL   ??HalLedSet?relay    ; Banked call to: HalLedSet
        SJMP    ??zb_StartConfirm_1
//  213 	}
//  214 	else
//  215 	{
//  216 		// Try again later with a delay
//  217 		osal_start_timerEx( sapi_TaskID, MY_START_EVT, myStartRetryDelay );
??zb_StartConfirm_0:
        ; Setup parameters for call to function osal_start_timerEx
        MOV     DPTR,#myStartRetryDelay
        MOVX    A,@DPTR
        MOV     R4,A
        MOV     R5,#0x0
        MOV     R2,#0x1
        MOV     R3,#0x0
        MOV     DPTR,#sapi_TaskID
        MOVX    A,@DPTR
        MOV     R1,A
        LCALL   ??osal_start_timerEx?relay; Banked call to: osal_start_timerEx
//  218 	}
//  219 }
??zb_StartConfirm_1:
        MOV     R7,#0x1
        LJMP    ?BANKED_LEAVE_XDATA
          CFI EndBlock cfiBlock4
//  220 /******************************************************************************
//  221 * @fn          zb_SendDataConfirm
//  222 *
//  223 * @brief       The zb_SendDataConfirm callback function is called by the
//  224 *              ZigBee after a send data operation completes
//  225 *
//  226 * @param       handle - The handle identifying the data transmission.
//  227 *              status - The status of the operation.
//  228 *
//  229 * @return      none
//  230 */

        RSEG BANKED_CODE:CODE:NOROOT(0)
//  231 void zb_SendDataConfirm( uint8 handle, uint8 status )
zb_SendDataConfirm:
          CFI Block cfiBlock5 Using cfiCommon0
          CFI Function zb_SendDataConfirm
        CODE
//  232 {
        ; Saved register size: 0
        ; Auto size: 0
//  233 }
        LJMP    ?BRET
          CFI EndBlock cfiBlock5
//  234 /******************************************************************************
//  235 * @fn          zb_BindConfirm
//  236 *
//  237 * @brief       The zb_BindConfirm callback is called by the ZigBee stack
//  238 *              after a bind operation completes.
//  239 *
//  240 * @param       commandId - The command ID of the binding being confirmed.
//  241 *              status - The status of the bind operation.
//  242 *
//  243 * @return      none
//  244 */

        RSEG BANKED_CODE:CODE:NOROOT(0)
//  245 void zb_BindConfirm( uint16 commandId, uint8 status )
zb_BindConfirm:
          CFI Block cfiBlock6 Using cfiCommon0
          CFI Function zb_BindConfirm
        CODE
//  246 {
        ; Saved register size: 0
        ; Auto size: 0
//  247 }
        LJMP    ?BRET
          CFI EndBlock cfiBlock6
//  248 /******************************************************************************
//  249 * @fn          zb_AllowBindConfirm
//  250 *
//  251 * @brief       Indicates when another device attempted to bind to this device
//  252 *
//  253 * @param
//  254 *
//  255 * @return      none
//  256 */

        RSEG BANKED_CODE:CODE:NOROOT(0)
//  257 void zb_AllowBindConfirm( uint16 source )
zb_AllowBindConfirm:
          CFI Block cfiBlock7 Using cfiCommon0
          CFI Function zb_AllowBindConfirm
        CODE
//  258 {
        ; Saved register size: 0
        ; Auto size: 0
//  259 }
        LJMP    ?BRET
          CFI EndBlock cfiBlock7
//  260 /******************************************************************************
//  261 * @fn          zb_FindDeviceConfirm
//  262 *
//  263 * @brief       The zb_FindDeviceConfirm callback function is called by the
//  264 *              ZigBee stack when a find device operation completes.
//  265 *
//  266 * @param       searchType - The type of search that was performed.
//  267 *              searchKey - Value that the search was executed on.
//  268 *              result - The result of the search.
//  269 *
//  270 * @return      none
//  271 */

        RSEG BANKED_CODE:CODE:NOROOT(0)
//  272 void zb_FindDeviceConfirm( uint8 searchType, uint8 *searchKey, uint8 *result )
zb_FindDeviceConfirm:
          CFI Block cfiBlock8 Using cfiCommon0
          CFI Function zb_FindDeviceConfirm
        CODE
//  273 {
        ; Saved register size: 0
        ; Auto size: 0
//  274 }
        LJMP    ?BRET
          CFI EndBlock cfiBlock8
//  275 /******************************************************************************
//  276 * @fn          zb_ReceiveDataIndication
//  277 *
//  278 * @brief       The zb_ReceiveDataIndication callback function is called
//  279 *              asynchronously by the ZigBee stack to notify the application
//  280 *              when data is received from a peer device.
//  281 *
//  282 * @param       source - The short address of the peer device that sent the data
//  283 *              command - The commandId associated with the data
//  284 *              len - The number of bytes in the pData parameter
//  285 *              pData - The data sent by the peer device
//  286 *
//  287 * @return      none
//  288 */
//  289 #include <stdio.h>
//  290 
//  291 

        RSEG BANKED_CODE:CODE:NOROOT(0)
//  292 void zb_ReceiveDataIndication( uint16 source, uint16 command, uint16 len, uint8 *pData  )
zb_ReceiveDataIndication:
          CFI Block cfiBlock9 Using cfiCommon0
          CFI Function zb_ReceiveDataIndication
        CODE
//  293 {
        FUNCALL zb_ReceiveDataIndication, HalLedSet
        LOCFRAME ISTACK, 0, STACK
        LOCFRAME PSTACK, 0, STACK
        LOCFRAME XSTACK, 144, STACK
        LOCFRAME IOVERLAY, 0, STATIC
        LOCFRAME DOVERLAY, 0, STATIC
        ARGFRAME ISTACK, 0, STACK
        ARGFRAME PSTACK, 0, STACK
        ARGFRAME XSTACK, 144, STACK
        ARGFRAME IOVERLAY, 0, STATIC
        ARGFRAME DOVERLAY, 0, STATIC
        FUNCALL zb_ReceiveDataIndication, HalLedSet
        LOCFRAME ISTACK, 0, STACK
        LOCFRAME PSTACK, 0, STACK
        LOCFRAME XSTACK, 144, STACK
        LOCFRAME IOVERLAY, 0, STATIC
        LOCFRAME DOVERLAY, 0, STATIC
        ARGFRAME ISTACK, 0, STACK
        ARGFRAME PSTACK, 0, STACK
        ARGFRAME XSTACK, 144, STACK
        ARGFRAME IOVERLAY, 0, STATIC
        ARGFRAME DOVERLAY, 0, STATIC
        FUNCALL zb_ReceiveDataIndication, sprintf
        LOCFRAME ISTACK, 0, STACK
        LOCFRAME PSTACK, 0, STACK
        LOCFRAME XSTACK, 148, STACK
        LOCFRAME IOVERLAY, 0, STATIC
        LOCFRAME DOVERLAY, 0, STATIC
        ARGFRAME ISTACK, 0, STACK
        ARGFRAME PSTACK, 0, STACK
        ARGFRAME XSTACK, 148, STACK
        ARGFRAME IOVERLAY, 0, STATIC
        ARGFRAME DOVERLAY, 0, STATIC
        FUNCALL zb_ReceiveDataIndication, sprintf
        LOCFRAME ISTACK, 0, STACK
        LOCFRAME PSTACK, 0, STACK
        LOCFRAME XSTACK, 148, STACK
        LOCFRAME IOVERLAY, 0, STATIC
        LOCFRAME DOVERLAY, 0, STATIC
        ARGFRAME ISTACK, 0, STACK
        ARGFRAME PSTACK, 0, STACK
        ARGFRAME XSTACK, 148, STACK
        ARGFRAME IOVERLAY, 0, STATIC
        ARGFRAME DOVERLAY, 0, STATIC
        FUNCALL zb_ReceiveDataIndication, sprintf
        LOCFRAME ISTACK, 0, STACK
        LOCFRAME PSTACK, 0, STACK
        LOCFRAME XSTACK, 148, STACK
        LOCFRAME IOVERLAY, 0, STATIC
        LOCFRAME DOVERLAY, 0, STATIC
        ARGFRAME ISTACK, 0, STACK
        ARGFRAME PSTACK, 0, STACK
        ARGFRAME XSTACK, 148, STACK
        ARGFRAME IOVERLAY, 0, STATIC
        ARGFRAME DOVERLAY, 0, STATIC
        FUNCALL zb_ReceiveDataIndication, sprintf
        LOCFRAME ISTACK, 0, STACK
        LOCFRAME PSTACK, 0, STACK
        LOCFRAME XSTACK, 148, STACK
        LOCFRAME IOVERLAY, 0, STATIC
        LOCFRAME DOVERLAY, 0, STATIC
        ARGFRAME ISTACK, 0, STACK
        ARGFRAME PSTACK, 0, STACK
        ARGFRAME XSTACK, 148, STACK
        ARGFRAME IOVERLAY, 0, STATIC
        ARGFRAME DOVERLAY, 0, STATIC
        FUNCALL zb_ReceiveDataIndication, sprintf
        LOCFRAME ISTACK, 0, STACK
        LOCFRAME PSTACK, 0, STACK
        LOCFRAME XSTACK, 150, STACK
        LOCFRAME IOVERLAY, 0, STATIC
        LOCFRAME DOVERLAY, 0, STATIC
        ARGFRAME ISTACK, 0, STACK
        ARGFRAME PSTACK, 0, STACK
        ARGFRAME XSTACK, 150, STACK
        ARGFRAME IOVERLAY, 0, STATIC
        ARGFRAME DOVERLAY, 0, STATIC
        FUNCALL zb_ReceiveDataIndication, sprintf
        LOCFRAME ISTACK, 0, STACK
        LOCFRAME PSTACK, 0, STACK
        LOCFRAME XSTACK, 150, STACK
        LOCFRAME IOVERLAY, 0, STATIC
        LOCFRAME DOVERLAY, 0, STATIC
        ARGFRAME ISTACK, 0, STACK
        ARGFRAME PSTACK, 0, STACK
        ARGFRAME XSTACK, 150, STACK
        ARGFRAME IOVERLAY, 0, STATIC
        ARGFRAME DOVERLAY, 0, STATIC
        FUNCALL zb_ReceiveDataIndication, sprintf
        LOCFRAME ISTACK, 0, STACK
        LOCFRAME PSTACK, 0, STACK
        LOCFRAME XSTACK, 148, STACK
        LOCFRAME IOVERLAY, 0, STATIC
        LOCFRAME DOVERLAY, 0, STATIC
        ARGFRAME ISTACK, 0, STACK
        ARGFRAME PSTACK, 0, STACK
        ARGFRAME XSTACK, 148, STACK
        ARGFRAME IOVERLAY, 0, STATIC
        ARGFRAME DOVERLAY, 0, STATIC
        FUNCALL zb_ReceiveDataIndication, sprintf
        LOCFRAME ISTACK, 0, STACK
        LOCFRAME PSTACK, 0, STACK
        LOCFRAME XSTACK, 148, STACK
        LOCFRAME IOVERLAY, 0, STATIC
        LOCFRAME DOVERLAY, 0, STATIC
        ARGFRAME ISTACK, 0, STACK
        ARGFRAME PSTACK, 0, STACK
        ARGFRAME XSTACK, 148, STACK
        ARGFRAME IOVERLAY, 0, STATIC
        ARGFRAME DOVERLAY, 0, STATIC
        FUNCALL zb_ReceiveDataIndication, sprintf
        LOCFRAME ISTACK, 0, STACK
        LOCFRAME PSTACK, 0, STACK
        LOCFRAME XSTACK, 148, STACK
        LOCFRAME IOVERLAY, 0, STATIC
        LOCFRAME DOVERLAY, 0, STATIC
        ARGFRAME ISTACK, 0, STACK
        ARGFRAME PSTACK, 0, STACK
        ARGFRAME XSTACK, 148, STACK
        ARGFRAME IOVERLAY, 0, STATIC
        ARGFRAME DOVERLAY, 0, STATIC
        FUNCALL zb_ReceiveDataIndication, sprintf
        LOCFRAME ISTACK, 0, STACK
        LOCFRAME PSTACK, 0, STACK
        LOCFRAME XSTACK, 148, STACK
        LOCFRAME IOVERLAY, 0, STATIC
        LOCFRAME DOVERLAY, 0, STATIC
        ARGFRAME ISTACK, 0, STACK
        ARGFRAME PSTACK, 0, STACK
        ARGFRAME XSTACK, 148, STACK
        ARGFRAME IOVERLAY, 0, STATIC
        ARGFRAME DOVERLAY, 0, STATIC
        FUNCALL zb_ReceiveDataIndication, sprintf
        LOCFRAME ISTACK, 0, STACK
        LOCFRAME PSTACK, 0, STACK
        LOCFRAME XSTACK, 148, STACK
        LOCFRAME IOVERLAY, 0, STATIC
        LOCFRAME DOVERLAY, 0, STATIC
        ARGFRAME ISTACK, 0, STACK
        ARGFRAME PSTACK, 0, STACK
        ARGFRAME XSTACK, 148, STACK
        ARGFRAME IOVERLAY, 0, STATIC
        ARGFRAME DOVERLAY, 0, STATIC
        FUNCALL zb_ReceiveDataIndication, sprintf
        LOCFRAME ISTACK, 0, STACK
        LOCFRAME PSTACK, 0, STACK
        LOCFRAME XSTACK, 148, STACK
        LOCFRAME IOVERLAY, 0, STATIC
        LOCFRAME DOVERLAY, 0, STATIC
        ARGFRAME ISTACK, 0, STACK
        ARGFRAME PSTACK, 0, STACK
        ARGFRAME XSTACK, 148, STACK
        ARGFRAME IOVERLAY, 0, STATIC
        ARGFRAME DOVERLAY, 0, STATIC
        FUNCALL zb_ReceiveDataIndication, sprintf
        LOCFRAME ISTACK, 0, STACK
        LOCFRAME PSTACK, 0, STACK
        LOCFRAME XSTACK, 152, STACK
        LOCFRAME IOVERLAY, 0, STATIC
        LOCFRAME DOVERLAY, 0, STATIC
        ARGFRAME ISTACK, 0, STACK
        ARGFRAME PSTACK, 0, STACK
        ARGFRAME XSTACK, 152, STACK
        ARGFRAME IOVERLAY, 0, STATIC
        ARGFRAME DOVERLAY, 0, STATIC
        FUNCALL zb_ReceiveDataIndication, sprintf
        LOCFRAME ISTACK, 0, STACK
        LOCFRAME PSTACK, 0, STACK
        LOCFRAME XSTACK, 152, STACK
        LOCFRAME IOVERLAY, 0, STATIC
        LOCFRAME DOVERLAY, 0, STATIC
        ARGFRAME ISTACK, 0, STACK
        ARGFRAME PSTACK, 0, STACK
        ARGFRAME XSTACK, 152, STACK
        ARGFRAME IOVERLAY, 0, STATIC
        ARGFRAME DOVERLAY, 0, STATIC
        FUNCALL zb_ReceiveDataIndication, HalUARTWrite
        LOCFRAME ISTACK, 0, STACK
        LOCFRAME PSTACK, 0, STACK
        LOCFRAME XSTACK, 144, STACK
        LOCFRAME IOVERLAY, 0, STATIC
        LOCFRAME DOVERLAY, 0, STATIC
        ARGFRAME ISTACK, 0, STACK
        ARGFRAME PSTACK, 0, STACK
        ARGFRAME XSTACK, 144, STACK
        ARGFRAME IOVERLAY, 0, STATIC
        ARGFRAME DOVERLAY, 0, STATIC
        FUNCALL zb_ReceiveDataIndication, HalUARTWrite
        LOCFRAME ISTACK, 0, STACK
        LOCFRAME PSTACK, 0, STACK
        LOCFRAME XSTACK, 144, STACK
        LOCFRAME IOVERLAY, 0, STATIC
        LOCFRAME DOVERLAY, 0, STATIC
        ARGFRAME ISTACK, 0, STACK
        ARGFRAME PSTACK, 0, STACK
        ARGFRAME XSTACK, 144, STACK
        ARGFRAME IOVERLAY, 0, STATIC
        ARGFRAME DOVERLAY, 0, STATIC
        REQUIRE ?V0
        REQUIRE ?V1
        REQUIRE ?V2
        REQUIRE ?V3
        REQUIRE ?V4
        REQUIRE ?V5
        REQUIRE ?V6
        REQUIRE ?V7
        MOV     A,#-0x10
        LCALL   ?BANKED_ENTER_XDATA
          CFI DPH0 load(1, XDATA, add(CFA_XSP16, literal(-1)))
          CFI DPL0 load(1, XDATA, add(CFA_XSP16, literal(-2)))
          CFI ?BRET_EXT load(1, XDATA, add(CFA_XSP16, literal(-3)))
          CFI ?RET_HIGH load(1, XDATA, add(CFA_XSP16, literal(-4)))
          CFI ?RET_LOW load(1, XDATA, add(CFA_XSP16, literal(-5)))
          CFI R7 load(1, XDATA, add(CFA_XSP16, literal(-6)))
          CFI V7 load(1, XDATA, add(CFA_XSP16, literal(-7)))
          CFI V6 load(1, XDATA, add(CFA_XSP16, literal(-8)))
          CFI V5 load(1, XDATA, add(CFA_XSP16, literal(-9)))
          CFI V4 load(1, XDATA, add(CFA_XSP16, literal(-10)))
          CFI V3 load(1, XDATA, add(CFA_XSP16, literal(-11)))
          CFI V2 load(1, XDATA, add(CFA_XSP16, literal(-12)))
          CFI V1 load(1, XDATA, add(CFA_XSP16, literal(-13)))
          CFI V0 load(1, XDATA, add(CFA_XSP16, literal(-14)))
          CFI VB load(1, XDATA, add(CFA_XSP16, literal(-15)))
          CFI R6 load(1, XDATA, add(CFA_XSP16, literal(-16)))
          CFI CFA_SP SP+0
          CFI CFA_XSP16 add(XSP16, 16)
        ; Saved register size: 16
        ; Auto size: 128
        MOV     A,#-0x80
        LCALL   ?ALLOC_XSTACK8
          CFI CFA_XSP16 add(XSP16, 144)
//  294 	char buf[64],buf2[64];
//  295 	int ck,i;
//  296 	//接收到数据之后LED灯闪烁
//  297 	HalLedSet( HAL_LED_1, HAL_LED_MODE_OFF );
        ; Setup parameters for call to function HalLedSet
        MOV     R2,#0x0
        MOV     R1,#0x1
        LCALL   ??HalLedSet?relay    ; Banked call to: HalLedSet
//  298 	HalLedSet( HAL_LED_1, HAL_LED_MODE_BLINK );
        ; Setup parameters for call to function HalLedSet
        MOV     R2,#0x2
        MOV     R1,#0x1
        LCALL   ??HalLedSet?relay    ; Banked call to: HalLedSet
        MOV     A,#-0x70
        LCALL   ?XSTACK_DISP0_8
        MOVX    A,@DPTR
        MOV     R2,A
        INC     DPTR
        MOVX    A,@DPTR
        MOV     R3,A
        MOV     A,#-0x6e
        LCALL   ?XSTACK_DISP0_8
        MOVX    A,@DPTR
        MOV     ?V0,A
        INC     DPTR
        MOVX    A,@DPTR
        MOV     ?V1,A
//  299 
//  300 
//  301 	switch(flag){
        MOV     DPTR,#flag
        MOVX    A,@DPTR
        MOV     ?V2,A
        INC     DPTR
        MOVX    A,@DPTR
        MOV     ?V3,A
        MOV     R0,#?V2
        LCALL   ?US_SWITCH_DENSE
`?<Jumptable for zb_ReceiveDataIndication>_0`:
        DATA
        DATA16
        DATA
        DATA16
        DW        1
        DATA
        DATA8
        DATA
        DATA8
        DB        4
        DATA
        DATA16
        DATA
        DATA16
        DW        ??zb_ReceiveDataIndication_0
        DATA
        DATA16
        DATA
        DATA16
        DW        ??zb_ReceiveDataIndication_1
        DATA
        DATA16
        DATA
        DATA16
        DW        ??zb_ReceiveDataIndication_2
        DATA
        DATA16
        DATA
        DATA16
        DW        ??zb_ReceiveDataIndication_3
        DATA
        DATA16
        DATA
        DATA16
        DW        ??zb_ReceiveDataIndication_4
        DATA
        DATA16
        DATA
        DATA16
        DW        ??zb_ReceiveDataIndication_5
        CODE
//  302 	case 1:
//  303 		//温湿度传感器
//  304 		if (len==4 && pData[0]==0x01 ) {  //&& pData[5]==ck
??zb_ReceiveDataIndication_1:
        MOV     A,#0x4
        XRL     A,R2
        ORL     A,R3
        JZ      $+5
        LJMP    ??zb_ReceiveDataIndication_6 & 0xFFFF
        SJMP    ??zb_ReceiveDataIndication_7
//  305 			sprintf(buf, "DEVID:%02X humidity:%02d temp:%02d\n", 
//  306 				pData[0], pData[1], pData[2]);
//  307                         sprintf(buf2, "%02X%02d|%02d\n", pData[0], pData[1], pData[2]);
//  308 		} 
//  309 		break;
//  310 	case 2:
//  311 		//人体红外
//  312 		if (len==3 && pData[0]==0x02 ) {  
??zb_ReceiveDataIndication_2:
        MOV     A,#0x3
        XRL     A,R2
        ORL     A,R3
        JZ      $+5
        LJMP    ??zb_ReceiveDataIndication_6 & 0xFFFF
        MOV     DPL,?V0
        MOV     DPH,?V1
        MOVX    A,@DPTR
        XRL     A,#0x2
        JZ      $+5
        LJMP    ??zb_ReceiveDataIndication_6 & 0xFFFF
//  313 			sprintf(buf, "DEVID:%02X humenbody:%01d\n", 
//  314 				pData[0], pData[1]);
        LCALL   ?Subroutine1 & 0xFFFF
//  315                         sprintf(buf2, "%02X%02d\n", pData[0], pData[1]);
//  316 
//  317 		} 
??CrossCallReturnLabel_26:
        LCALL   ?PUSH_XSTACK_I_TWO
          CFI CFA_XSP16 add(XSP16, 146)
        MOV     ?V2,#0x2
        MOV     R0,#?V2
        LCALL   ?PUSH_XSTACK_I_TWO
          CFI CFA_XSP16 add(XSP16, 148)
        MOV     R4,#`?<Constant "DEVID:%02X humenbody:...">` & 0xff
        MOV     R5,#(`?<Constant "DEVID:%02X humenbody:...">` >> 8) & 0xff
        LJMP    ??zb_ReceiveDataIndication_8 & 0xFFFF
          CFI CFA_XSP16 add(XSP16, 144)
//  318 		break;
//  319 	case 3:
//  320 		//超声波测距
//  321 		if (len==3 && pData[0]==0x03 ) {  
??zb_ReceiveDataIndication_3:
        MOV     A,#0x3
        XRL     A,R2
        ORL     A,R3
        JZ      $+5
        LJMP    ??zb_ReceiveDataIndication_6 & 0xFFFF
        MOV     DPL,?V0
        MOV     DPH,?V1
        MOVX    A,@DPTR
        XRL     A,#0x3
        JZ      $+5
        LJMP    ??zb_ReceiveDataIndication_6 & 0xFFFF
//  322 			sprintf(buf, "DEVID:%02X ultrasonic:%u\n", 
//  323 				pData[0], pData[1]);
        LCALL   ?Subroutine1 & 0xFFFF
//  324                         sprintf(buf2, "%02X%02d\n", pData[0], pData[1]);
//  325 
//  326 		} 
??CrossCallReturnLabel_27:
        LCALL   ?PUSH_XSTACK_I_TWO
          CFI CFA_XSP16 add(XSP16, 146)
        MOV     ?V2,#0x3
        MOV     R0,#?V2
        LCALL   ?PUSH_XSTACK_I_TWO
          CFI CFA_XSP16 add(XSP16, 148)
        MOV     R4,#`?<Constant "DEVID:%02X ultrasonic...">` & 0xff
        MOV     R5,#(`?<Constant "DEVID:%02X ultrasonic...">` >> 8) & 0xff
        LJMP    ??zb_ReceiveDataIndication_8 & 0xFFFF
          CFI CFA_XSP16 add(XSP16, 144)
//  327 		break;
//  328 	case 4:
//  329 		//光敏
//  330 		if (len==3 && pData[0]==0x04 ) {  
??zb_ReceiveDataIndication_4:
        MOV     A,#0x3
        XRL     A,R2
        ORL     A,R3
        JZ      $+5
        LJMP    ??zb_ReceiveDataIndication_6 & 0xFFFF
        LJMP    ??zb_ReceiveDataIndication_9 & 0xFFFF
//  331 			sprintf(buf, "DEVID:%02X photoresistance:%01d\n", 
//  332 				pData[0], pData[1]);  
//  333                         sprintf(buf2, "%02X%02d\n", pData[0], pData[1]);
//  334 
//  335 		}
//  336 		break;
//  337 	case 5:
//  338 		//三轴加速传感器
//  339 		if (len==5 && pData[0]==0x05 ) {  
//  340 			sprintf(buf, "DEVID:%02X x:%01d  y:%01d  z:%01d\n", 
//  341 				pData[0], pData[1], pData[2], pData[3]);  
//  342                         sprintf(buf2, "%02X%02d|%02d|%02d\n", pData[0], pData[1], pData[2], pData[3]);
//  343 
//  344 		}
//  345 		break;
//  346                 
//  347 	default:     
//  348           
//  349 		//温湿度传感器
//  350 		if (len==4 && pData[0]==0x01 ) { 
??zb_ReceiveDataIndication_0:
        MOV     A,#0x4
        XRL     A,R2
        ORL     A,R3
        JNZ     ??zb_ReceiveDataIndication_10
??zb_ReceiveDataIndication_7:
        MOV     DPL,?V0
        MOV     DPH,?V1
        MOVX    A,@DPTR
        XRL     A,#0x1
        JZ      $+5
        LJMP    ??zb_ReceiveDataIndication_6 & 0xFFFF
//  351 			sprintf(buf, "DEVID:%02X humidity:%02d temp:%02d\n", 
//  352 				pData[0], pData[1], pData[2]);
        LCALL   ?Subroutine3 & 0xFFFF
??CrossCallReturnLabel_0:
        ; Setup parameters for call to function sprintf
        MOV     DPL,?V2
        MOV     DPH,A
        LCALL   ?Subroutine6 & 0xFFFF
??CrossCallReturnLabel_5:
        LCALL   ?PUSH_XSTACK_I_TWO
          CFI CFA_XSP16 add(XSP16, 146)
        LCALL   ?Subroutine5 & 0xFFFF
??CrossCallReturnLabel_15:
        LCALL   ?PUSH_XSTACK_I_TWO
          CFI CFA_XSP16 add(XSP16, 148)
        MOV     ?V4,#0x1
        MOV     R0,#?V4
        LCALL   ?PUSH_XSTACK_I_TWO
          CFI CFA_XSP16 add(XSP16, 150)
        MOV     R4,#`?<Constant "DEVID:%02X humidity:%...">` & 0xff
        MOV     R5,#(`?<Constant "DEVID:%02X humidity:%...">` >> 8) & 0xff
        MOV     A,#0x46
        LCALL   ?XSTACK_DISP101_8
        LCALL   ??sprintf?relay      ; Banked call to: sprintf
        MOV     A,#0x6
        LCALL   ?DEALLOC_XSTACK8
          CFI CFA_XSP16 add(XSP16, 144)
//  353                         sprintf(buf2, "%02X%02d|%02d\n", pData[0], pData[1], pData[2]);
        ; Setup parameters for call to function sprintf
        MOV     DPL,?V2
        MOV     DPH,?V3
        LCALL   ??Subroutine12_0 & 0xFFFF
//  354 
//  355 		} 
??CrossCallReturnLabel_24:
        LCALL   ?PUSH_XSTACK_I_TWO
          CFI CFA_XSP16 add(XSP16, 146)
        LCALL   ?Subroutine2 & 0xFFFF
??CrossCallReturnLabel_19:
        LCALL   ?PUSH_XSTACK_I_TWO
          CFI CFA_XSP16 add(XSP16, 148)
        LCALL   ?Subroutine4 & 0xFFFF
??CrossCallReturnLabel_2:
        LCALL   ?PUSH_XSTACK_I_TWO
          CFI CFA_XSP16 add(XSP16, 150)
        MOV     R4,#`?<Constant "%02X%02d|%02d\\n">` & 0xff
        MOV     R5,#(`?<Constant "%02X%02d|%02d\\n">` >> 8) & 0xff
        MOV     A,#0x6
        LCALL   ?XSTACK_DISP101_8
        LCALL   ??sprintf?relay      ; Banked call to: sprintf
        MOV     A,#0x6
        LCALL   ?DEALLOC_XSTACK8
          CFI CFA_XSP16 add(XSP16, 144)
        LJMP    ??zb_ReceiveDataIndication_6 & 0xFFFF
//  356 		//人体红外
//  357 		if (len==3 && pData[0]==0x02 ) {  
??zb_ReceiveDataIndication_10:
        MOV     A,#0x3
        XRL     A,R2
        ORL     A,R3
        JZ      $+5
        LJMP    ??zb_ReceiveDataIndication_5 & 0xFFFF
        MOV     DPL,?V0
        MOV     DPH,?V1
        MOVX    A,@DPTR
        XRL     A,#0x2
        JNZ     ??zb_ReceiveDataIndication_11
//  358 			sprintf(buf, "DEVID:%02X humenbody:%01d\n", 
//  359 				pData[0], pData[1]);
        LCALL   ?Subroutine1 & 0xFFFF
??CrossCallReturnLabel_28:
        LCALL   ?PUSH_XSTACK_I_TWO
          CFI CFA_XSP16 add(XSP16, 146)
        MOV     ?V2,#0x2
        MOV     R0,#?V2
        LCALL   ?PUSH_XSTACK_I_TWO
          CFI CFA_XSP16 add(XSP16, 148)
        MOV     R4,#`?<Constant "DEVID:%02X humenbody:...">` & 0xff
        MOV     R5,#(`?<Constant "DEVID:%02X humenbody:...">` >> 8) & 0xff
        MOV     A,#0x44
        LCALL   ?XSTACK_DISP101_8
        LCALL   ??sprintf?relay      ; Banked call to: sprintf
        MOV     A,#0x4
        LCALL   ?DEALLOC_XSTACK8
          CFI CFA_XSP16 add(XSP16, 144)
//  360                         sprintf(buf2, "%02X%02d\n", pData[0], pData[1]);
        ; Setup parameters for call to function sprintf
        LCALL   ?Subroutine2 & 0xFFFF
//  361 
//  362 		} 
??CrossCallReturnLabel_20:
        LCALL   ?PUSH_XSTACK_I_TWO
          CFI CFA_XSP16 add(XSP16, 146)
        MOV     DPL,?V0
        MOV     DPH,?V1
        LCALL   ??Subroutine11_0 & 0xFFFF
??CrossCallReturnLabel_17:
        LCALL   ?PUSH_XSTACK_I_TWO
          CFI CFA_XSP16 add(XSP16, 148)
        MOV     R4,#`?<Constant "%02X%02d\\n">` & 0xff
        MOV     R5,#(`?<Constant "%02X%02d\\n">` >> 8) & 0xff
        MOV     A,#0x4
        LCALL   ?XSTACK_DISP101_8
        LCALL   ??sprintf?relay      ; Banked call to: sprintf
        MOV     A,#0x4
        LCALL   ?DEALLOC_XSTACK8
          CFI CFA_XSP16 add(XSP16, 144)
??zb_ReceiveDataIndication_11:
        MOV     DPL,?V0
        MOV     DPH,?V1
        MOVX    A,@DPTR
        XRL     A,#0x3
        JNZ     ??zb_ReceiveDataIndication_9
//  363 		//超声波测距
//  364 		if (len==3 && pData[0]==0x03 ) {  
//  365 			sprintf(buf, "DEVID:%02X ultrasonic:%u\n", 
//  366 				pData[0], pData[1]);
        LCALL   ?Subroutine1 & 0xFFFF
??CrossCallReturnLabel_29:
        LCALL   ?PUSH_XSTACK_I_TWO
          CFI CFA_XSP16 add(XSP16, 146)
        MOV     ?V2,#0x3
        MOV     R0,#?V2
        LCALL   ?PUSH_XSTACK_I_TWO
          CFI CFA_XSP16 add(XSP16, 148)
        MOV     R4,#`?<Constant "DEVID:%02X ultrasonic...">` & 0xff
        MOV     R5,#(`?<Constant "DEVID:%02X ultrasonic...">` >> 8) & 0xff
        MOV     A,#0x44
        LCALL   ?XSTACK_DISP101_8
        LCALL   ??sprintf?relay      ; Banked call to: sprintf
        MOV     A,#0x4
        LCALL   ?DEALLOC_XSTACK8
          CFI CFA_XSP16 add(XSP16, 144)
//  367                         sprintf(buf2, "%02X%02d\n", pData[0], pData[1]);
        ; Setup parameters for call to function sprintf
        LCALL   ?Subroutine2 & 0xFFFF
//  368 
//  369 		} 
??CrossCallReturnLabel_21:
        LCALL   ?PUSH_XSTACK_I_TWO
          CFI CFA_XSP16 add(XSP16, 146)
        MOV     DPL,?V0
        MOV     DPH,?V1
        LCALL   ??Subroutine11_0 & 0xFFFF
??CrossCallReturnLabel_18:
        LCALL   ?PUSH_XSTACK_I_TWO
          CFI CFA_XSP16 add(XSP16, 148)
        MOV     R4,#`?<Constant "%02X%02d\\n">` & 0xff
        MOV     R5,#(`?<Constant "%02X%02d\\n">` >> 8) & 0xff
        MOV     A,#0x4
        LCALL   ?XSTACK_DISP101_8
        LCALL   ??sprintf?relay      ; Banked call to: sprintf
        MOV     A,#0x4
        LCALL   ?DEALLOC_XSTACK8
          CFI CFA_XSP16 add(XSP16, 144)
??zb_ReceiveDataIndication_9:
        MOV     DPL,?V0
        MOV     DPH,?V1
        MOVX    A,@DPTR
        XRL     A,#0x4
        JZ      $+5
        LJMP    ??zb_ReceiveDataIndication_6 & 0xFFFF
//  370 		//光敏
//  371 		if (len==3 && pData[0]==0x04 ) {  
//  372 			sprintf(buf, "DEVID:%02X photoresistance:%01d\n", 
//  373 				pData[0], pData[1]);
        LCALL   ?Subroutine1 & 0xFFFF
??CrossCallReturnLabel_30:
        LCALL   ?PUSH_XSTACK_I_TWO
          CFI CFA_XSP16 add(XSP16, 146)
        MOV     ?V2,#0x4
        MOV     R0,#?V2
        LCALL   ?PUSH_XSTACK_I_TWO
          CFI CFA_XSP16 add(XSP16, 148)
        MOV     R4,#`?<Constant "DEVID:%02X photoresis...">` & 0xff
        MOV     R5,#(`?<Constant "DEVID:%02X photoresis...">` >> 8) & 0xff
??zb_ReceiveDataIndication_8:
        MOV     A,#0x44
        LCALL   ?XSTACK_DISP101_8
        LCALL   ??sprintf?relay      ; Banked call to: sprintf
        MOV     A,#0x4
        LCALL   ?DEALLOC_XSTACK8
          CFI CFA_XSP16 add(XSP16, 144)
//  374                         sprintf(buf2, "%02X%02d\n", pData[0], pData[1]);
        ; Setup parameters for call to function sprintf
        LCALL   ?Subroutine2 & 0xFFFF
//  375 
//  376 		} 
??CrossCallReturnLabel_22:
        LCALL   ?PUSH_XSTACK_I_TWO
          CFI CFA_XSP16 add(XSP16, 146)
        LCALL   ?Subroutine4 & 0xFFFF
??CrossCallReturnLabel_3:
        LCALL   ?PUSH_XSTACK_I_TWO
          CFI CFA_XSP16 add(XSP16, 148)
        MOV     R4,#`?<Constant "%02X%02d\\n">` & 0xff
        MOV     R5,#(`?<Constant "%02X%02d\\n">` >> 8) & 0xff
        MOV     A,#0x4
        LCALL   ?XSTACK_DISP101_8
        LCALL   ??sprintf?relay      ; Banked call to: sprintf
        MOV     A,#0x4
        LCALL   ?DEALLOC_XSTACK8
          CFI CFA_XSP16 add(XSP16, 144)
        LJMP    ??zb_ReceiveDataIndication_6 & 0xFFFF
//  377                 //三轴加速传感器
//  378 		if (len==5 && pData[0]==0x05 ) {  
??zb_ReceiveDataIndication_5:
        MOV     A,#0x5
        XRL     A,R2
        ORL     A,R3
        JZ      $+5
        LJMP    ??zb_ReceiveDataIndication_6 & 0xFFFF
        MOV     DPL,?V0
        MOV     DPH,?V1
        MOVX    A,@DPTR
        XRL     A,#0x5
        JNZ     ??zb_ReceiveDataIndication_6
//  379 			sprintf(buf, "DEVID:%02X x:%01d  y:%01d  z:%01d\n", 
//  380 				pData[0], pData[1], pData[2], pData[3]);  
        MOV     A,?V0
        ADD     A,#0x3
        MOV     ?V6,A
        CLR     A
        ADDC    A,?V1
        MOV     ?V7,A
        LCALL   ?Subroutine3 & 0xFFFF
??CrossCallReturnLabel_1:
        ; Setup parameters for call to function sprintf
        MOV     DPL,?V6
        MOV     DPH,?V7
        LCALL   ?Subroutine6 & 0xFFFF
??CrossCallReturnLabel_6:
        LCALL   ?PUSH_XSTACK_I_TWO
          CFI CFA_XSP16 add(XSP16, 146)
        MOV     DPL,?V2
        MOV     DPH,?V3
        LCALL   ??Subroutine10_0 & 0xFFFF
??CrossCallReturnLabel_13:
        LCALL   ?PUSH_XSTACK_I_TWO
          CFI CFA_XSP16 add(XSP16, 148)
        LCALL   ?Subroutine5 & 0xFFFF
??CrossCallReturnLabel_16:
        LCALL   ?PUSH_XSTACK_I_TWO
          CFI CFA_XSP16 add(XSP16, 150)
        MOV     ?V4,#0x5
        MOV     R0,#?V4
        LCALL   ?PUSH_XSTACK_I_TWO
          CFI CFA_XSP16 add(XSP16, 152)
        MOV     R4,#`?<Constant "DEVID:%02X x:%01d  y:...">` & 0xff
        MOV     R5,#(`?<Constant "DEVID:%02X x:%01d  y:...">` >> 8) & 0xff
        MOV     A,#0x48
        LCALL   ?XSTACK_DISP101_8
        LCALL   ??sprintf?relay      ; Banked call to: sprintf
        MOV     A,#0x8
        LCALL   ?DEALLOC_XSTACK8
          CFI CFA_XSP16 add(XSP16, 144)
//  381                         sprintf(buf2, "%02X%02d|%02d|%02d\n", pData[0], pData[1], pData[2], pData[3]);
        ; Setup parameters for call to function sprintf
        MOV     DPL,?V6
        MOV     DPH,?V7
        LCALL   ??Subroutine10_0 & 0xFFFF
//  382 
//  383 		}
//  384 		break;
//  385 	}
??CrossCallReturnLabel_14:
        LCALL   ?PUSH_XSTACK_I_TWO
          CFI CFA_XSP16 add(XSP16, 146)
        MOV     DPL,?V2
        MOV     DPH,?V3
        LCALL   ??Subroutine12_0 & 0xFFFF
??CrossCallReturnLabel_25:
        LCALL   ?PUSH_XSTACK_I_TWO
          CFI CFA_XSP16 add(XSP16, 148)
        LCALL   ?Subroutine2 & 0xFFFF
??CrossCallReturnLabel_23:
        LCALL   ?PUSH_XSTACK_I_TWO
          CFI CFA_XSP16 add(XSP16, 150)
        LCALL   ?Subroutine4 & 0xFFFF
??CrossCallReturnLabel_4:
        LCALL   ?PUSH_XSTACK_I_TWO
          CFI CFA_XSP16 add(XSP16, 152)
        MOV     R4,#`?<Constant "%02X%02d|%02d|%02d\\n">` & 0xff
        MOV     R5,#(`?<Constant "%02X%02d|%02d|%02d\\n">` >> 8) & 0xff
        MOV     A,#0x8
        LCALL   ?XSTACK_DISP101_8
        LCALL   ??sprintf?relay      ; Banked call to: sprintf
        MOV     A,#0x8
        LCALL   ?DEALLOC_XSTACK8
          CFI CFA_XSP16 add(XSP16, 144)
//  386 
//  387 //    sprintf(buf," flag is:%d \n", 
//  388 //				flag);
//  389 //    
//  390 	for(i=0;i<64;i++){
??zb_ReceiveDataIndication_6:
        MOV     R6,#0x0
        MOV     R7,#0x0
//  391 		if(buf[i]=='\0')break;
??zb_ReceiveDataIndication_12:
        MOV     A,#0x40
        LCALL   ?XSTACK_DISP0_8
        LCALL   ?Subroutine8 & 0xFFFF
??CrossCallReturnLabel_9:
        JZ      ??zb_ReceiveDataIndication_13
//  392 		HalUARTWrite (HAL_UART_PORT_0, &buf[i], 1);		//从串口写一个数据          
        ; Setup parameters for call to function HalUARTWrite
        MOV     R4,#0x1
        MOV     R5,#0x0
        MOV     A,#0x40
        LCALL   ?XSTACK_DISP0_8
        LCALL   ?Subroutine9 & 0xFFFF
//  393 	}
??CrossCallReturnLabel_11:
        LCALL   ??HalUARTWrite?relay ; Banked call to: HalUARTWrite
        INC     R6
        MOV     A,R6
        JNZ     ??zb_ReceiveDataIndication_14
        INC     R7
??zb_ReceiveDataIndication_14:
        LCALL   ?Subroutine7 & 0xFFFF
??CrossCallReturnLabel_7:
        JC      ??zb_ReceiveDataIndication_12
//  394 	for(i=0;i<64;i++){
??zb_ReceiveDataIndication_13:
        MOV     R6,#0x0
        MOV     R7,#0x0
//  395 		if(buf2[i]=='\0')break;
??zb_ReceiveDataIndication_15:
        MOV     DPL,?XSP + 0
        MOV     DPH,?XSP + 1
        LCALL   ?Subroutine8 & 0xFFFF
??CrossCallReturnLabel_10:
        JZ      ??zb_ReceiveDataIndication_16
//  396 		HalUARTWrite (HAL_UART_PORT_0, &buf2[i], 1);		//从串口写一个数据          
        ; Setup parameters for call to function HalUARTWrite
        MOV     R4,#0x1
        MOV     R5,#0x0
        MOV     DPL,?XSP + 0
        MOV     DPH,?XSP + 1
        LCALL   ?Subroutine9 & 0xFFFF
//  397 	}
??CrossCallReturnLabel_12:
        LCALL   ??HalUARTWrite?relay ; Banked call to: HalUARTWrite
        INC     R6
        MOV     A,R6
        JNZ     ??zb_ReceiveDataIndication_17
        INC     R7
??zb_ReceiveDataIndication_17:
        LCALL   ?Subroutine7 & 0xFFFF
??CrossCallReturnLabel_8:
        JC      ??zb_ReceiveDataIndication_15
//  398 
//  399 }
??zb_ReceiveDataIndication_16:
        MOV     A,#-0x80
        LCALL   ?DEALLOC_XSTACK8
          CFI CFA_XSP16 add(XSP16, 16)
        MOV     R7,#0x8
        LJMP    ?BANKED_LEAVE_XDATA
          CFI EndBlock cfiBlock9

        RSEG BANKED_CODE:CODE:NOROOT(0)
?Subroutine9:
          CFI Block cfiCond10 Using cfiCommon0
          CFI Function zb_ReceiveDataIndication
          CFI Conditional ??CrossCallReturnLabel_11
          CFI R6 load(1, XDATA, add(CFA_XSP16, literal(-16)))
          CFI VB load(1, XDATA, add(CFA_XSP16, literal(-15)))
          CFI V0 load(1, XDATA, add(CFA_XSP16, literal(-14)))
          CFI V1 load(1, XDATA, add(CFA_XSP16, literal(-13)))
          CFI V2 load(1, XDATA, add(CFA_XSP16, literal(-12)))
          CFI V3 load(1, XDATA, add(CFA_XSP16, literal(-11)))
          CFI V4 load(1, XDATA, add(CFA_XSP16, literal(-10)))
          CFI V5 load(1, XDATA, add(CFA_XSP16, literal(-9)))
          CFI V6 load(1, XDATA, add(CFA_XSP16, literal(-8)))
          CFI V7 load(1, XDATA, add(CFA_XSP16, literal(-7)))
          CFI R7 load(1, XDATA, add(CFA_XSP16, literal(-6)))
          CFI ?RET_LOW load(1, XDATA, add(CFA_XSP16, literal(-5)))
          CFI ?RET_HIGH load(1, XDATA, add(CFA_XSP16, literal(-4)))
          CFI ?BRET_EXT load(1, XDATA, add(CFA_XSP16, literal(-3)))
          CFI DPL0 load(1, XDATA, add(CFA_XSP16, literal(-2)))
          CFI DPH0 load(1, XDATA, add(CFA_XSP16, literal(-1)))
          CFI CFA_SP SP+-2
          CFI CFA_XSP16 add(XSP16, 144)
          CFI Block cfiCond11 Using cfiCommon0
          CFI (cfiCond11) Function zb_ReceiveDataIndication
          CFI (cfiCond11) Conditional ??CrossCallReturnLabel_12
          CFI (cfiCond11) R6 load(1, XDATA, add(CFA_XSP16, literal(-16)))
          CFI (cfiCond11) VB load(1, XDATA, add(CFA_XSP16, literal(-15)))
          CFI (cfiCond11) V0 load(1, XDATA, add(CFA_XSP16, literal(-14)))
          CFI (cfiCond11) V1 load(1, XDATA, add(CFA_XSP16, literal(-13)))
          CFI (cfiCond11) V2 load(1, XDATA, add(CFA_XSP16, literal(-12)))
          CFI (cfiCond11) V3 load(1, XDATA, add(CFA_XSP16, literal(-11)))
          CFI (cfiCond11) V4 load(1, XDATA, add(CFA_XSP16, literal(-10)))
          CFI (cfiCond11) V5 load(1, XDATA, add(CFA_XSP16, literal(-9)))
          CFI (cfiCond11) V6 load(1, XDATA, add(CFA_XSP16, literal(-8)))
          CFI (cfiCond11) V7 load(1, XDATA, add(CFA_XSP16, literal(-7)))
          CFI (cfiCond11) R7 load(1, XDATA, add(CFA_XSP16, literal(-6)))
          CFI (cfiCond11) ?RET_LOW load(1, XDATA, add(CFA_XSP16, literal(-5)))
          CFI (cfiCond11) ?RET_HIGH load(1, XDATA, add(CFA_XSP16, literal(-4)))
          CFI (cfiCond11) ?BRET_EXT load(1, XDATA, add(CFA_XSP16, literal(-3)))
          CFI (cfiCond11) DPL0 load(1, XDATA, add(CFA_XSP16, literal(-2)))
          CFI (cfiCond11) DPH0 load(1, XDATA, add(CFA_XSP16, literal(-1)))
          CFI (cfiCond11) CFA_SP SP+-2
          CFI (cfiCond11) CFA_XSP16 add(XSP16, 144)
          CFI Block cfiPicker12 Using cfiCommon1
          CFI (cfiPicker12) NoFunction
          CFI (cfiPicker12) Picker
        MOV     A,DPL
        ADD     A,R6
        MOV     R2,A
        MOV     A,DPH
        ADDC    A,R7
        MOV     R3,A
        MOV     R1,#0x0
        RET
          CFI EndBlock cfiCond10
          CFI EndBlock cfiCond11
          CFI EndBlock cfiPicker12

        RSEG BANKED_CODE:CODE:NOROOT(0)
?Subroutine8:
          CFI Block cfiCond13 Using cfiCommon0
          CFI Function zb_ReceiveDataIndication
          CFI Conditional ??CrossCallReturnLabel_9
          CFI R6 load(1, XDATA, add(CFA_XSP16, literal(-16)))
          CFI VB load(1, XDATA, add(CFA_XSP16, literal(-15)))
          CFI V0 load(1, XDATA, add(CFA_XSP16, literal(-14)))
          CFI V1 load(1, XDATA, add(CFA_XSP16, literal(-13)))
          CFI V2 load(1, XDATA, add(CFA_XSP16, literal(-12)))
          CFI V3 load(1, XDATA, add(CFA_XSP16, literal(-11)))
          CFI V4 load(1, XDATA, add(CFA_XSP16, literal(-10)))
          CFI V5 load(1, XDATA, add(CFA_XSP16, literal(-9)))
          CFI V6 load(1, XDATA, add(CFA_XSP16, literal(-8)))
          CFI V7 load(1, XDATA, add(CFA_XSP16, literal(-7)))
          CFI R7 load(1, XDATA, add(CFA_XSP16, literal(-6)))
          CFI ?RET_LOW load(1, XDATA, add(CFA_XSP16, literal(-5)))
          CFI ?RET_HIGH load(1, XDATA, add(CFA_XSP16, literal(-4)))
          CFI ?BRET_EXT load(1, XDATA, add(CFA_XSP16, literal(-3)))
          CFI DPL0 load(1, XDATA, add(CFA_XSP16, literal(-2)))
          CFI DPH0 load(1, XDATA, add(CFA_XSP16, literal(-1)))
          CFI CFA_SP SP+-2
          CFI CFA_XSP16 add(XSP16, 144)
          CFI Block cfiCond14 Using cfiCommon0
          CFI (cfiCond14) Function zb_ReceiveDataIndication
          CFI (cfiCond14) Conditional ??CrossCallReturnLabel_10
          CFI (cfiCond14) R6 load(1, XDATA, add(CFA_XSP16, literal(-16)))
          CFI (cfiCond14) VB load(1, XDATA, add(CFA_XSP16, literal(-15)))
          CFI (cfiCond14) V0 load(1, XDATA, add(CFA_XSP16, literal(-14)))
          CFI (cfiCond14) V1 load(1, XDATA, add(CFA_XSP16, literal(-13)))
          CFI (cfiCond14) V2 load(1, XDATA, add(CFA_XSP16, literal(-12)))
          CFI (cfiCond14) V3 load(1, XDATA, add(CFA_XSP16, literal(-11)))
          CFI (cfiCond14) V4 load(1, XDATA, add(CFA_XSP16, literal(-10)))
          CFI (cfiCond14) V5 load(1, XDATA, add(CFA_XSP16, literal(-9)))
          CFI (cfiCond14) V6 load(1, XDATA, add(CFA_XSP16, literal(-8)))
          CFI (cfiCond14) V7 load(1, XDATA, add(CFA_XSP16, literal(-7)))
          CFI (cfiCond14) R7 load(1, XDATA, add(CFA_XSP16, literal(-6)))
          CFI (cfiCond14) ?RET_LOW load(1, XDATA, add(CFA_XSP16, literal(-5)))
          CFI (cfiCond14) ?RET_HIGH load(1, XDATA, add(CFA_XSP16, literal(-4)))
          CFI (cfiCond14) ?BRET_EXT load(1, XDATA, add(CFA_XSP16, literal(-3)))
          CFI (cfiCond14) DPL0 load(1, XDATA, add(CFA_XSP16, literal(-2)))
          CFI (cfiCond14) DPH0 load(1, XDATA, add(CFA_XSP16, literal(-1)))
          CFI (cfiCond14) CFA_SP SP+-2
          CFI (cfiCond14) CFA_XSP16 add(XSP16, 144)
          CFI Block cfiPicker15 Using cfiCommon1
          CFI (cfiPicker15) NoFunction
          CFI (cfiPicker15) Picker
        MOV     A,DPL
        ADD     A,R6
        MOV     DPL,A
        MOV     A,DPH
        ADDC    A,R7
        MOV     DPH,A
        MOVX    A,@DPTR
        RET
          CFI EndBlock cfiCond13
          CFI EndBlock cfiCond14
          CFI EndBlock cfiPicker15

        RSEG BANKED_CODE:CODE:NOROOT(0)
?Subroutine7:
          CFI Block cfiCond16 Using cfiCommon0
          CFI Function zb_ReceiveDataIndication
          CFI Conditional ??CrossCallReturnLabel_7
          CFI R6 load(1, XDATA, add(CFA_XSP16, literal(-16)))
          CFI VB load(1, XDATA, add(CFA_XSP16, literal(-15)))
          CFI V0 load(1, XDATA, add(CFA_XSP16, literal(-14)))
          CFI V1 load(1, XDATA, add(CFA_XSP16, literal(-13)))
          CFI V2 load(1, XDATA, add(CFA_XSP16, literal(-12)))
          CFI V3 load(1, XDATA, add(CFA_XSP16, literal(-11)))
          CFI V4 load(1, XDATA, add(CFA_XSP16, literal(-10)))
          CFI V5 load(1, XDATA, add(CFA_XSP16, literal(-9)))
          CFI V6 load(1, XDATA, add(CFA_XSP16, literal(-8)))
          CFI V7 load(1, XDATA, add(CFA_XSP16, literal(-7)))
          CFI R7 load(1, XDATA, add(CFA_XSP16, literal(-6)))
          CFI ?RET_LOW load(1, XDATA, add(CFA_XSP16, literal(-5)))
          CFI ?RET_HIGH load(1, XDATA, add(CFA_XSP16, literal(-4)))
          CFI ?BRET_EXT load(1, XDATA, add(CFA_XSP16, literal(-3)))
          CFI DPL0 load(1, XDATA, add(CFA_XSP16, literal(-2)))
          CFI DPH0 load(1, XDATA, add(CFA_XSP16, literal(-1)))
          CFI CFA_SP SP+-2
          CFI CFA_XSP16 add(XSP16, 144)
          CFI Block cfiCond17 Using cfiCommon0
          CFI (cfiCond17) Function zb_ReceiveDataIndication
          CFI (cfiCond17) Conditional ??CrossCallReturnLabel_8
          CFI (cfiCond17) R6 load(1, XDATA, add(CFA_XSP16, literal(-16)))
          CFI (cfiCond17) VB load(1, XDATA, add(CFA_XSP16, literal(-15)))
          CFI (cfiCond17) V0 load(1, XDATA, add(CFA_XSP16, literal(-14)))
          CFI (cfiCond17) V1 load(1, XDATA, add(CFA_XSP16, literal(-13)))
          CFI (cfiCond17) V2 load(1, XDATA, add(CFA_XSP16, literal(-12)))
          CFI (cfiCond17) V3 load(1, XDATA, add(CFA_XSP16, literal(-11)))
          CFI (cfiCond17) V4 load(1, XDATA, add(CFA_XSP16, literal(-10)))
          CFI (cfiCond17) V5 load(1, XDATA, add(CFA_XSP16, literal(-9)))
          CFI (cfiCond17) V6 load(1, XDATA, add(CFA_XSP16, literal(-8)))
          CFI (cfiCond17) V7 load(1, XDATA, add(CFA_XSP16, literal(-7)))
          CFI (cfiCond17) R7 load(1, XDATA, add(CFA_XSP16, literal(-6)))
          CFI (cfiCond17) ?RET_LOW load(1, XDATA, add(CFA_XSP16, literal(-5)))
          CFI (cfiCond17) ?RET_HIGH load(1, XDATA, add(CFA_XSP16, literal(-4)))
          CFI (cfiCond17) ?BRET_EXT load(1, XDATA, add(CFA_XSP16, literal(-3)))
          CFI (cfiCond17) DPL0 load(1, XDATA, add(CFA_XSP16, literal(-2)))
          CFI (cfiCond17) DPH0 load(1, XDATA, add(CFA_XSP16, literal(-1)))
          CFI (cfiCond17) CFA_SP SP+-2
          CFI (cfiCond17) CFA_XSP16 add(XSP16, 144)
          CFI Block cfiPicker18 Using cfiCommon1
          CFI (cfiPicker18) NoFunction
          CFI (cfiPicker18) Picker
        CLR     C
        SUBB    A,#0x40
        MOV     A,R7
        SUBB    A,#0x0
        MOV     C,0xD0 /* PSW */.2
        XRL     A,PSW
        RLC     A
        RET
          CFI EndBlock cfiCond16
          CFI EndBlock cfiCond17
          CFI EndBlock cfiPicker18

        RSEG BANKED_CODE:CODE:NOROOT(0)
?Subroutine6:
          CFI Block cfiCond19 Using cfiCommon0
          CFI Function zb_ReceiveDataIndication
          CFI Conditional ??CrossCallReturnLabel_5
          CFI R6 load(1, XDATA, add(CFA_XSP16, literal(-16)))
          CFI VB load(1, XDATA, add(CFA_XSP16, literal(-15)))
          CFI V0 load(1, XDATA, add(CFA_XSP16, literal(-14)))
          CFI V1 load(1, XDATA, add(CFA_XSP16, literal(-13)))
          CFI V2 load(1, XDATA, add(CFA_XSP16, literal(-12)))
          CFI V3 load(1, XDATA, add(CFA_XSP16, literal(-11)))
          CFI V4 load(1, XDATA, add(CFA_XSP16, literal(-10)))
          CFI V5 load(1, XDATA, add(CFA_XSP16, literal(-9)))
          CFI V6 load(1, XDATA, add(CFA_XSP16, literal(-8)))
          CFI V7 load(1, XDATA, add(CFA_XSP16, literal(-7)))
          CFI R7 load(1, XDATA, add(CFA_XSP16, literal(-6)))
          CFI ?RET_LOW load(1, XDATA, add(CFA_XSP16, literal(-5)))
          CFI ?RET_HIGH load(1, XDATA, add(CFA_XSP16, literal(-4)))
          CFI ?BRET_EXT load(1, XDATA, add(CFA_XSP16, literal(-3)))
          CFI DPL0 load(1, XDATA, add(CFA_XSP16, literal(-2)))
          CFI DPH0 load(1, XDATA, add(CFA_XSP16, literal(-1)))
          CFI CFA_SP SP+-2
          CFI CFA_XSP16 add(XSP16, 144)
          CFI Block cfiCond20 Using cfiCommon0
          CFI (cfiCond20) Function zb_ReceiveDataIndication
          CFI (cfiCond20) Conditional ??CrossCallReturnLabel_6
          CFI (cfiCond20) R6 load(1, XDATA, add(CFA_XSP16, literal(-16)))
          CFI (cfiCond20) VB load(1, XDATA, add(CFA_XSP16, literal(-15)))
          CFI (cfiCond20) V0 load(1, XDATA, add(CFA_XSP16, literal(-14)))
          CFI (cfiCond20) V1 load(1, XDATA, add(CFA_XSP16, literal(-13)))
          CFI (cfiCond20) V2 load(1, XDATA, add(CFA_XSP16, literal(-12)))
          CFI (cfiCond20) V3 load(1, XDATA, add(CFA_XSP16, literal(-11)))
          CFI (cfiCond20) V4 load(1, XDATA, add(CFA_XSP16, literal(-10)))
          CFI (cfiCond20) V5 load(1, XDATA, add(CFA_XSP16, literal(-9)))
          CFI (cfiCond20) V6 load(1, XDATA, add(CFA_XSP16, literal(-8)))
          CFI (cfiCond20) V7 load(1, XDATA, add(CFA_XSP16, literal(-7)))
          CFI (cfiCond20) R7 load(1, XDATA, add(CFA_XSP16, literal(-6)))
          CFI (cfiCond20) ?RET_LOW load(1, XDATA, add(CFA_XSP16, literal(-5)))
          CFI (cfiCond20) ?RET_HIGH load(1, XDATA, add(CFA_XSP16, literal(-4)))
          CFI (cfiCond20) ?BRET_EXT load(1, XDATA, add(CFA_XSP16, literal(-3)))
          CFI (cfiCond20) DPL0 load(1, XDATA, add(CFA_XSP16, literal(-2)))
          CFI (cfiCond20) DPH0 load(1, XDATA, add(CFA_XSP16, literal(-1)))
          CFI (cfiCond20) CFA_SP SP+-2
          CFI (cfiCond20) CFA_XSP16 add(XSP16, 144)
          CFI Block cfiPicker21 Using cfiCommon1
          CFI (cfiPicker21) NoFunction
          CFI (cfiPicker21) Picker
        MOVX    A,@DPTR
        MOV     ?V4,A
        MOV     ?V5,#0x0
        MOV     R0,#?V4
        RET
          CFI EndBlock cfiCond19
          CFI EndBlock cfiCond20
          CFI EndBlock cfiPicker21

        RSEG BANKED_CODE:CODE:NOROOT(0)
?Subroutine5:
          CFI Block cfiCond22 Using cfiCommon0
          CFI Function zb_ReceiveDataIndication
          CFI Conditional ??CrossCallReturnLabel_15
          CFI R6 load(1, XDATA, add(CFA_XSP16, literal(-16)))
          CFI VB load(1, XDATA, add(CFA_XSP16, literal(-15)))
          CFI V0 load(1, XDATA, add(CFA_XSP16, literal(-14)))
          CFI V1 load(1, XDATA, add(CFA_XSP16, literal(-13)))
          CFI V2 load(1, XDATA, add(CFA_XSP16, literal(-12)))
          CFI V3 load(1, XDATA, add(CFA_XSP16, literal(-11)))
          CFI V4 load(1, XDATA, add(CFA_XSP16, literal(-10)))
          CFI V5 load(1, XDATA, add(CFA_XSP16, literal(-9)))
          CFI V6 load(1, XDATA, add(CFA_XSP16, literal(-8)))
          CFI V7 load(1, XDATA, add(CFA_XSP16, literal(-7)))
          CFI R7 load(1, XDATA, add(CFA_XSP16, literal(-6)))
          CFI ?RET_LOW load(1, XDATA, add(CFA_XSP16, literal(-5)))
          CFI ?RET_HIGH load(1, XDATA, add(CFA_XSP16, literal(-4)))
          CFI ?BRET_EXT load(1, XDATA, add(CFA_XSP16, literal(-3)))
          CFI DPL0 load(1, XDATA, add(CFA_XSP16, literal(-2)))
          CFI DPH0 load(1, XDATA, add(CFA_XSP16, literal(-1)))
          CFI CFA_SP SP+-2
          CFI CFA_XSP16 add(XSP16, 146)
          CFI Block cfiCond23 Using cfiCommon0
          CFI (cfiCond23) Function zb_ReceiveDataIndication
          CFI (cfiCond23) Conditional ??CrossCallReturnLabel_16
          CFI (cfiCond23) R6 load(1, XDATA, add(CFA_XSP16, literal(-16)))
          CFI (cfiCond23) VB load(1, XDATA, add(CFA_XSP16, literal(-15)))
          CFI (cfiCond23) V0 load(1, XDATA, add(CFA_XSP16, literal(-14)))
          CFI (cfiCond23) V1 load(1, XDATA, add(CFA_XSP16, literal(-13)))
          CFI (cfiCond23) V2 load(1, XDATA, add(CFA_XSP16, literal(-12)))
          CFI (cfiCond23) V3 load(1, XDATA, add(CFA_XSP16, literal(-11)))
          CFI (cfiCond23) V4 load(1, XDATA, add(CFA_XSP16, literal(-10)))
          CFI (cfiCond23) V5 load(1, XDATA, add(CFA_XSP16, literal(-9)))
          CFI (cfiCond23) V6 load(1, XDATA, add(CFA_XSP16, literal(-8)))
          CFI (cfiCond23) V7 load(1, XDATA, add(CFA_XSP16, literal(-7)))
          CFI (cfiCond23) R7 load(1, XDATA, add(CFA_XSP16, literal(-6)))
          CFI (cfiCond23) ?RET_LOW load(1, XDATA, add(CFA_XSP16, literal(-5)))
          CFI (cfiCond23) ?RET_HIGH load(1, XDATA, add(CFA_XSP16, literal(-4)))
          CFI (cfiCond23) ?BRET_EXT load(1, XDATA, add(CFA_XSP16, literal(-3)))
          CFI (cfiCond23) DPL0 load(1, XDATA, add(CFA_XSP16, literal(-2)))
          CFI (cfiCond23) DPH0 load(1, XDATA, add(CFA_XSP16, literal(-1)))
          CFI (cfiCond23) CFA_SP SP+-2
          CFI (cfiCond23) CFA_XSP16 add(XSP16, 148)
          CFI Block cfiPicker24 Using cfiCommon1
          CFI (cfiPicker24) NoFunction
          CFI (cfiPicker24) Picker
        MOV     DPL,R6
        MOV     DPH,R7
          CFI EndBlock cfiCond22
          CFI EndBlock cfiCond23
          CFI EndBlock cfiPicker24
        REQUIRE ??Subroutine10_0
        ; // Fall through to label ??Subroutine10_0

        RSEG BANKED_CODE:CODE:NOROOT(0)
??Subroutine10_0:
          CFI Block cfiCond25 Using cfiCommon0
          CFI Function zb_ReceiveDataIndication
          CFI Conditional ??CrossCallReturnLabel_13
          CFI R6 load(1, XDATA, add(CFA_XSP16, literal(-16)))
          CFI VB load(1, XDATA, add(CFA_XSP16, literal(-15)))
          CFI V0 load(1, XDATA, add(CFA_XSP16, literal(-14)))
          CFI V1 load(1, XDATA, add(CFA_XSP16, literal(-13)))
          CFI V2 load(1, XDATA, add(CFA_XSP16, literal(-12)))
          CFI V3 load(1, XDATA, add(CFA_XSP16, literal(-11)))
          CFI V4 load(1, XDATA, add(CFA_XSP16, literal(-10)))
          CFI V5 load(1, XDATA, add(CFA_XSP16, literal(-9)))
          CFI V6 load(1, XDATA, add(CFA_XSP16, literal(-8)))
          CFI V7 load(1, XDATA, add(CFA_XSP16, literal(-7)))
          CFI R7 load(1, XDATA, add(CFA_XSP16, literal(-6)))
          CFI ?RET_LOW load(1, XDATA, add(CFA_XSP16, literal(-5)))
          CFI ?RET_HIGH load(1, XDATA, add(CFA_XSP16, literal(-4)))
          CFI ?BRET_EXT load(1, XDATA, add(CFA_XSP16, literal(-3)))
          CFI DPL0 load(1, XDATA, add(CFA_XSP16, literal(-2)))
          CFI DPH0 load(1, XDATA, add(CFA_XSP16, literal(-1)))
          CFI CFA_SP SP+-2
          CFI CFA_XSP16 add(XSP16, 146)
          CFI Block cfiCond26 Using cfiCommon0
          CFI (cfiCond26) Function zb_ReceiveDataIndication
          CFI (cfiCond26) Conditional ??CrossCallReturnLabel_14
          CFI (cfiCond26) R6 load(1, XDATA, add(CFA_XSP16, literal(-16)))
          CFI (cfiCond26) VB load(1, XDATA, add(CFA_XSP16, literal(-15)))
          CFI (cfiCond26) V0 load(1, XDATA, add(CFA_XSP16, literal(-14)))
          CFI (cfiCond26) V1 load(1, XDATA, add(CFA_XSP16, literal(-13)))
          CFI (cfiCond26) V2 load(1, XDATA, add(CFA_XSP16, literal(-12)))
          CFI (cfiCond26) V3 load(1, XDATA, add(CFA_XSP16, literal(-11)))
          CFI (cfiCond26) V4 load(1, XDATA, add(CFA_XSP16, literal(-10)))
          CFI (cfiCond26) V5 load(1, XDATA, add(CFA_XSP16, literal(-9)))
          CFI (cfiCond26) V6 load(1, XDATA, add(CFA_XSP16, literal(-8)))
          CFI (cfiCond26) V7 load(1, XDATA, add(CFA_XSP16, literal(-7)))
          CFI (cfiCond26) R7 load(1, XDATA, add(CFA_XSP16, literal(-6)))
          CFI (cfiCond26) ?RET_LOW load(1, XDATA, add(CFA_XSP16, literal(-5)))
          CFI (cfiCond26) ?RET_HIGH load(1, XDATA, add(CFA_XSP16, literal(-4)))
          CFI (cfiCond26) ?BRET_EXT load(1, XDATA, add(CFA_XSP16, literal(-3)))
          CFI (cfiCond26) DPL0 load(1, XDATA, add(CFA_XSP16, literal(-2)))
          CFI (cfiCond26) DPH0 load(1, XDATA, add(CFA_XSP16, literal(-1)))
          CFI (cfiCond26) CFA_SP SP+-2
          CFI (cfiCond26) CFA_XSP16 add(XSP16, 144)
          CFI Block cfiCond27 Using cfiCommon0
          CFI (cfiCond27) Function zb_ReceiveDataIndication
          CFI (cfiCond27) Conditional ??CrossCallReturnLabel_15
          CFI (cfiCond27) R6 load(1, XDATA, add(CFA_XSP16, literal(-16)))
          CFI (cfiCond27) VB load(1, XDATA, add(CFA_XSP16, literal(-15)))
          CFI (cfiCond27) V0 load(1, XDATA, add(CFA_XSP16, literal(-14)))
          CFI (cfiCond27) V1 load(1, XDATA, add(CFA_XSP16, literal(-13)))
          CFI (cfiCond27) V2 load(1, XDATA, add(CFA_XSP16, literal(-12)))
          CFI (cfiCond27) V3 load(1, XDATA, add(CFA_XSP16, literal(-11)))
          CFI (cfiCond27) V4 load(1, XDATA, add(CFA_XSP16, literal(-10)))
          CFI (cfiCond27) V5 load(1, XDATA, add(CFA_XSP16, literal(-9)))
          CFI (cfiCond27) V6 load(1, XDATA, add(CFA_XSP16, literal(-8)))
          CFI (cfiCond27) V7 load(1, XDATA, add(CFA_XSP16, literal(-7)))
          CFI (cfiCond27) R7 load(1, XDATA, add(CFA_XSP16, literal(-6)))
          CFI (cfiCond27) ?RET_LOW load(1, XDATA, add(CFA_XSP16, literal(-5)))
          CFI (cfiCond27) ?RET_HIGH load(1, XDATA, add(CFA_XSP16, literal(-4)))
          CFI (cfiCond27) ?BRET_EXT load(1, XDATA, add(CFA_XSP16, literal(-3)))
          CFI (cfiCond27) DPL0 load(1, XDATA, add(CFA_XSP16, literal(-2)))
          CFI (cfiCond27) DPH0 load(1, XDATA, add(CFA_XSP16, literal(-1)))
          CFI (cfiCond27) CFA_SP SP+-2
          CFI (cfiCond27) CFA_XSP16 add(XSP16, 146)
          CFI Block cfiCond28 Using cfiCommon0
          CFI (cfiCond28) Function zb_ReceiveDataIndication
          CFI (cfiCond28) Conditional ??CrossCallReturnLabel_16
          CFI (cfiCond28) R6 load(1, XDATA, add(CFA_XSP16, literal(-16)))
          CFI (cfiCond28) VB load(1, XDATA, add(CFA_XSP16, literal(-15)))
          CFI (cfiCond28) V0 load(1, XDATA, add(CFA_XSP16, literal(-14)))
          CFI (cfiCond28) V1 load(1, XDATA, add(CFA_XSP16, literal(-13)))
          CFI (cfiCond28) V2 load(1, XDATA, add(CFA_XSP16, literal(-12)))
          CFI (cfiCond28) V3 load(1, XDATA, add(CFA_XSP16, literal(-11)))
          CFI (cfiCond28) V4 load(1, XDATA, add(CFA_XSP16, literal(-10)))
          CFI (cfiCond28) V5 load(1, XDATA, add(CFA_XSP16, literal(-9)))
          CFI (cfiCond28) V6 load(1, XDATA, add(CFA_XSP16, literal(-8)))
          CFI (cfiCond28) V7 load(1, XDATA, add(CFA_XSP16, literal(-7)))
          CFI (cfiCond28) R7 load(1, XDATA, add(CFA_XSP16, literal(-6)))
          CFI (cfiCond28) ?RET_LOW load(1, XDATA, add(CFA_XSP16, literal(-5)))
          CFI (cfiCond28) ?RET_HIGH load(1, XDATA, add(CFA_XSP16, literal(-4)))
          CFI (cfiCond28) ?BRET_EXT load(1, XDATA, add(CFA_XSP16, literal(-3)))
          CFI (cfiCond28) DPL0 load(1, XDATA, add(CFA_XSP16, literal(-2)))
          CFI (cfiCond28) DPH0 load(1, XDATA, add(CFA_XSP16, literal(-1)))
          CFI (cfiCond28) CFA_SP SP+-2
          CFI (cfiCond28) CFA_XSP16 add(XSP16, 148)
          CFI Block cfiPicker29 Using cfiCommon1
          CFI (cfiPicker29) NoFunction
          CFI (cfiPicker29) Picker
        MOVX    A,@DPTR
        MOV     ?V4,A
        MOV     R0,#?V4
        RET
          CFI EndBlock cfiCond25
          CFI EndBlock cfiCond26
          CFI EndBlock cfiCond27
          CFI EndBlock cfiCond28
          CFI EndBlock cfiPicker29

        RSEG BANKED_CODE:CODE:NOROOT(0)
?Subroutine4:
          CFI Block cfiCond30 Using cfiCommon0
          CFI Function zb_ReceiveDataIndication
          CFI Conditional ??CrossCallReturnLabel_2
          CFI R6 load(1, XDATA, add(CFA_XSP16, literal(-16)))
          CFI VB load(1, XDATA, add(CFA_XSP16, literal(-15)))
          CFI V0 load(1, XDATA, add(CFA_XSP16, literal(-14)))
          CFI V1 load(1, XDATA, add(CFA_XSP16, literal(-13)))
          CFI V2 load(1, XDATA, add(CFA_XSP16, literal(-12)))
          CFI V3 load(1, XDATA, add(CFA_XSP16, literal(-11)))
          CFI V4 load(1, XDATA, add(CFA_XSP16, literal(-10)))
          CFI V5 load(1, XDATA, add(CFA_XSP16, literal(-9)))
          CFI V6 load(1, XDATA, add(CFA_XSP16, literal(-8)))
          CFI V7 load(1, XDATA, add(CFA_XSP16, literal(-7)))
          CFI R7 load(1, XDATA, add(CFA_XSP16, literal(-6)))
          CFI ?RET_LOW load(1, XDATA, add(CFA_XSP16, literal(-5)))
          CFI ?RET_HIGH load(1, XDATA, add(CFA_XSP16, literal(-4)))
          CFI ?BRET_EXT load(1, XDATA, add(CFA_XSP16, literal(-3)))
          CFI DPL0 load(1, XDATA, add(CFA_XSP16, literal(-2)))
          CFI DPH0 load(1, XDATA, add(CFA_XSP16, literal(-1)))
          CFI CFA_SP SP+-2
          CFI CFA_XSP16 add(XSP16, 148)
          CFI Block cfiCond31 Using cfiCommon0
          CFI (cfiCond31) Function zb_ReceiveDataIndication
          CFI (cfiCond31) Conditional ??CrossCallReturnLabel_3
          CFI (cfiCond31) R6 load(1, XDATA, add(CFA_XSP16, literal(-16)))
          CFI (cfiCond31) VB load(1, XDATA, add(CFA_XSP16, literal(-15)))
          CFI (cfiCond31) V0 load(1, XDATA, add(CFA_XSP16, literal(-14)))
          CFI (cfiCond31) V1 load(1, XDATA, add(CFA_XSP16, literal(-13)))
          CFI (cfiCond31) V2 load(1, XDATA, add(CFA_XSP16, literal(-12)))
          CFI (cfiCond31) V3 load(1, XDATA, add(CFA_XSP16, literal(-11)))
          CFI (cfiCond31) V4 load(1, XDATA, add(CFA_XSP16, literal(-10)))
          CFI (cfiCond31) V5 load(1, XDATA, add(CFA_XSP16, literal(-9)))
          CFI (cfiCond31) V6 load(1, XDATA, add(CFA_XSP16, literal(-8)))
          CFI (cfiCond31) V7 load(1, XDATA, add(CFA_XSP16, literal(-7)))
          CFI (cfiCond31) R7 load(1, XDATA, add(CFA_XSP16, literal(-6)))
          CFI (cfiCond31) ?RET_LOW load(1, XDATA, add(CFA_XSP16, literal(-5)))
          CFI (cfiCond31) ?RET_HIGH load(1, XDATA, add(CFA_XSP16, literal(-4)))
          CFI (cfiCond31) ?BRET_EXT load(1, XDATA, add(CFA_XSP16, literal(-3)))
          CFI (cfiCond31) DPL0 load(1, XDATA, add(CFA_XSP16, literal(-2)))
          CFI (cfiCond31) DPH0 load(1, XDATA, add(CFA_XSP16, literal(-1)))
          CFI (cfiCond31) CFA_SP SP+-2
          CFI (cfiCond31) CFA_XSP16 add(XSP16, 146)
          CFI Block cfiCond32 Using cfiCommon0
          CFI (cfiCond32) Function zb_ReceiveDataIndication
          CFI (cfiCond32) Conditional ??CrossCallReturnLabel_4
          CFI (cfiCond32) R6 load(1, XDATA, add(CFA_XSP16, literal(-16)))
          CFI (cfiCond32) VB load(1, XDATA, add(CFA_XSP16, literal(-15)))
          CFI (cfiCond32) V0 load(1, XDATA, add(CFA_XSP16, literal(-14)))
          CFI (cfiCond32) V1 load(1, XDATA, add(CFA_XSP16, literal(-13)))
          CFI (cfiCond32) V2 load(1, XDATA, add(CFA_XSP16, literal(-12)))
          CFI (cfiCond32) V3 load(1, XDATA, add(CFA_XSP16, literal(-11)))
          CFI (cfiCond32) V4 load(1, XDATA, add(CFA_XSP16, literal(-10)))
          CFI (cfiCond32) V5 load(1, XDATA, add(CFA_XSP16, literal(-9)))
          CFI (cfiCond32) V6 load(1, XDATA, add(CFA_XSP16, literal(-8)))
          CFI (cfiCond32) V7 load(1, XDATA, add(CFA_XSP16, literal(-7)))
          CFI (cfiCond32) R7 load(1, XDATA, add(CFA_XSP16, literal(-6)))
          CFI (cfiCond32) ?RET_LOW load(1, XDATA, add(CFA_XSP16, literal(-5)))
          CFI (cfiCond32) ?RET_HIGH load(1, XDATA, add(CFA_XSP16, literal(-4)))
          CFI (cfiCond32) ?BRET_EXT load(1, XDATA, add(CFA_XSP16, literal(-3)))
          CFI (cfiCond32) DPL0 load(1, XDATA, add(CFA_XSP16, literal(-2)))
          CFI (cfiCond32) DPH0 load(1, XDATA, add(CFA_XSP16, literal(-1)))
          CFI (cfiCond32) CFA_SP SP+-2
          CFI (cfiCond32) CFA_XSP16 add(XSP16, 150)
          CFI Block cfiPicker33 Using cfiCommon1
          CFI (cfiPicker33) NoFunction
          CFI (cfiPicker33) Picker
        MOV     DPL,?V0
        MOV     DPH,?V1
        MOVX    A,@DPTR
        MOV     ?V0,A
        MOV     ?V1,#0x0
        MOV     R0,#?V0
        RET
          CFI EndBlock cfiCond30
          CFI EndBlock cfiCond31
          CFI EndBlock cfiCond32
          CFI EndBlock cfiPicker33

        RSEG BANKED_CODE:CODE:NOROOT(0)
?Subroutine3:
          CFI Block cfiCond34 Using cfiCommon0
          CFI Function zb_ReceiveDataIndication
          CFI Conditional ??CrossCallReturnLabel_0
          CFI R6 load(1, XDATA, add(CFA_XSP16, literal(-16)))
          CFI VB load(1, XDATA, add(CFA_XSP16, literal(-15)))
          CFI V0 load(1, XDATA, add(CFA_XSP16, literal(-14)))
          CFI V1 load(1, XDATA, add(CFA_XSP16, literal(-13)))
          CFI V2 load(1, XDATA, add(CFA_XSP16, literal(-12)))
          CFI V3 load(1, XDATA, add(CFA_XSP16, literal(-11)))
          CFI V4 load(1, XDATA, add(CFA_XSP16, literal(-10)))
          CFI V5 load(1, XDATA, add(CFA_XSP16, literal(-9)))
          CFI V6 load(1, XDATA, add(CFA_XSP16, literal(-8)))
          CFI V7 load(1, XDATA, add(CFA_XSP16, literal(-7)))
          CFI R7 load(1, XDATA, add(CFA_XSP16, literal(-6)))
          CFI ?RET_LOW load(1, XDATA, add(CFA_XSP16, literal(-5)))
          CFI ?RET_HIGH load(1, XDATA, add(CFA_XSP16, literal(-4)))
          CFI ?BRET_EXT load(1, XDATA, add(CFA_XSP16, literal(-3)))
          CFI DPL0 load(1, XDATA, add(CFA_XSP16, literal(-2)))
          CFI DPH0 load(1, XDATA, add(CFA_XSP16, literal(-1)))
          CFI CFA_SP SP+-2
          CFI CFA_XSP16 add(XSP16, 144)
          CFI Block cfiCond35 Using cfiCommon0
          CFI (cfiCond35) Function zb_ReceiveDataIndication
          CFI (cfiCond35) Conditional ??CrossCallReturnLabel_1
          CFI (cfiCond35) R6 load(1, XDATA, add(CFA_XSP16, literal(-16)))
          CFI (cfiCond35) VB load(1, XDATA, add(CFA_XSP16, literal(-15)))
          CFI (cfiCond35) V0 load(1, XDATA, add(CFA_XSP16, literal(-14)))
          CFI (cfiCond35) V1 load(1, XDATA, add(CFA_XSP16, literal(-13)))
          CFI (cfiCond35) V2 load(1, XDATA, add(CFA_XSP16, literal(-12)))
          CFI (cfiCond35) V3 load(1, XDATA, add(CFA_XSP16, literal(-11)))
          CFI (cfiCond35) V4 load(1, XDATA, add(CFA_XSP16, literal(-10)))
          CFI (cfiCond35) V5 load(1, XDATA, add(CFA_XSP16, literal(-9)))
          CFI (cfiCond35) V6 load(1, XDATA, add(CFA_XSP16, literal(-8)))
          CFI (cfiCond35) V7 load(1, XDATA, add(CFA_XSP16, literal(-7)))
          CFI (cfiCond35) R7 load(1, XDATA, add(CFA_XSP16, literal(-6)))
          CFI (cfiCond35) ?RET_LOW load(1, XDATA, add(CFA_XSP16, literal(-5)))
          CFI (cfiCond35) ?RET_HIGH load(1, XDATA, add(CFA_XSP16, literal(-4)))
          CFI (cfiCond35) ?BRET_EXT load(1, XDATA, add(CFA_XSP16, literal(-3)))
          CFI (cfiCond35) DPL0 load(1, XDATA, add(CFA_XSP16, literal(-2)))
          CFI (cfiCond35) DPH0 load(1, XDATA, add(CFA_XSP16, literal(-1)))
          CFI (cfiCond35) CFA_SP SP+-2
          CFI (cfiCond35) CFA_XSP16 add(XSP16, 144)
          CFI Block cfiPicker36 Using cfiCommon1
          CFI (cfiPicker36) NoFunction
          CFI (cfiPicker36) Picker
        MOV     A,?V0
        ADD     A,#0x2
        MOV     ?V2,A
        CLR     A
        ADDC    A,?V1
        MOV     ?V3,A
        INC     DPTR
        MOV     R6,DPL
        MOV     R7,DPH
        RET
          CFI EndBlock cfiCond34
          CFI EndBlock cfiCond35
          CFI EndBlock cfiPicker36

        RSEG BANKED_CODE:CODE:NOROOT(0)
?Subroutine2:
          CFI Block cfiCond37 Using cfiCommon0
          CFI Function zb_ReceiveDataIndication
          CFI Conditional ??CrossCallReturnLabel_19
          CFI R6 load(1, XDATA, add(CFA_XSP16, literal(-16)))
          CFI VB load(1, XDATA, add(CFA_XSP16, literal(-15)))
          CFI V0 load(1, XDATA, add(CFA_XSP16, literal(-14)))
          CFI V1 load(1, XDATA, add(CFA_XSP16, literal(-13)))
          CFI V2 load(1, XDATA, add(CFA_XSP16, literal(-12)))
          CFI V3 load(1, XDATA, add(CFA_XSP16, literal(-11)))
          CFI V4 load(1, XDATA, add(CFA_XSP16, literal(-10)))
          CFI V5 load(1, XDATA, add(CFA_XSP16, literal(-9)))
          CFI V6 load(1, XDATA, add(CFA_XSP16, literal(-8)))
          CFI V7 load(1, XDATA, add(CFA_XSP16, literal(-7)))
          CFI R7 load(1, XDATA, add(CFA_XSP16, literal(-6)))
          CFI ?RET_LOW load(1, XDATA, add(CFA_XSP16, literal(-5)))
          CFI ?RET_HIGH load(1, XDATA, add(CFA_XSP16, literal(-4)))
          CFI ?BRET_EXT load(1, XDATA, add(CFA_XSP16, literal(-3)))
          CFI DPL0 load(1, XDATA, add(CFA_XSP16, literal(-2)))
          CFI DPH0 load(1, XDATA, add(CFA_XSP16, literal(-1)))
          CFI CFA_SP SP+-2
          CFI CFA_XSP16 add(XSP16, 146)
          CFI Block cfiCond38 Using cfiCommon0
          CFI (cfiCond38) Function zb_ReceiveDataIndication
          CFI (cfiCond38) Conditional ??CrossCallReturnLabel_20
          CFI (cfiCond38) R6 load(1, XDATA, add(CFA_XSP16, literal(-16)))
          CFI (cfiCond38) VB load(1, XDATA, add(CFA_XSP16, literal(-15)))
          CFI (cfiCond38) V0 load(1, XDATA, add(CFA_XSP16, literal(-14)))
          CFI (cfiCond38) V1 load(1, XDATA, add(CFA_XSP16, literal(-13)))
          CFI (cfiCond38) V2 load(1, XDATA, add(CFA_XSP16, literal(-12)))
          CFI (cfiCond38) V3 load(1, XDATA, add(CFA_XSP16, literal(-11)))
          CFI (cfiCond38) V4 load(1, XDATA, add(CFA_XSP16, literal(-10)))
          CFI (cfiCond38) V5 load(1, XDATA, add(CFA_XSP16, literal(-9)))
          CFI (cfiCond38) V6 load(1, XDATA, add(CFA_XSP16, literal(-8)))
          CFI (cfiCond38) V7 load(1, XDATA, add(CFA_XSP16, literal(-7)))
          CFI (cfiCond38) R7 load(1, XDATA, add(CFA_XSP16, literal(-6)))
          CFI (cfiCond38) ?RET_LOW load(1, XDATA, add(CFA_XSP16, literal(-5)))
          CFI (cfiCond38) ?RET_HIGH load(1, XDATA, add(CFA_XSP16, literal(-4)))
          CFI (cfiCond38) ?BRET_EXT load(1, XDATA, add(CFA_XSP16, literal(-3)))
          CFI (cfiCond38) DPL0 load(1, XDATA, add(CFA_XSP16, literal(-2)))
          CFI (cfiCond38) DPH0 load(1, XDATA, add(CFA_XSP16, literal(-1)))
          CFI (cfiCond38) CFA_SP SP+-2
          CFI (cfiCond38) CFA_XSP16 add(XSP16, 144)
          CFI Block cfiCond39 Using cfiCommon0
          CFI (cfiCond39) Function zb_ReceiveDataIndication
          CFI (cfiCond39) Conditional ??CrossCallReturnLabel_21
          CFI (cfiCond39) R6 load(1, XDATA, add(CFA_XSP16, literal(-16)))
          CFI (cfiCond39) VB load(1, XDATA, add(CFA_XSP16, literal(-15)))
          CFI (cfiCond39) V0 load(1, XDATA, add(CFA_XSP16, literal(-14)))
          CFI (cfiCond39) V1 load(1, XDATA, add(CFA_XSP16, literal(-13)))
          CFI (cfiCond39) V2 load(1, XDATA, add(CFA_XSP16, literal(-12)))
          CFI (cfiCond39) V3 load(1, XDATA, add(CFA_XSP16, literal(-11)))
          CFI (cfiCond39) V4 load(1, XDATA, add(CFA_XSP16, literal(-10)))
          CFI (cfiCond39) V5 load(1, XDATA, add(CFA_XSP16, literal(-9)))
          CFI (cfiCond39) V6 load(1, XDATA, add(CFA_XSP16, literal(-8)))
          CFI (cfiCond39) V7 load(1, XDATA, add(CFA_XSP16, literal(-7)))
          CFI (cfiCond39) R7 load(1, XDATA, add(CFA_XSP16, literal(-6)))
          CFI (cfiCond39) ?RET_LOW load(1, XDATA, add(CFA_XSP16, literal(-5)))
          CFI (cfiCond39) ?RET_HIGH load(1, XDATA, add(CFA_XSP16, literal(-4)))
          CFI (cfiCond39) ?BRET_EXT load(1, XDATA, add(CFA_XSP16, literal(-3)))
          CFI (cfiCond39) DPL0 load(1, XDATA, add(CFA_XSP16, literal(-2)))
          CFI (cfiCond39) DPH0 load(1, XDATA, add(CFA_XSP16, literal(-1)))
          CFI (cfiCond39) CFA_SP SP+-2
          CFI (cfiCond39) CFA_XSP16 add(XSP16, 144)
          CFI Block cfiCond40 Using cfiCommon0
          CFI (cfiCond40) Function zb_ReceiveDataIndication
          CFI (cfiCond40) Conditional ??CrossCallReturnLabel_22
          CFI (cfiCond40) R6 load(1, XDATA, add(CFA_XSP16, literal(-16)))
          CFI (cfiCond40) VB load(1, XDATA, add(CFA_XSP16, literal(-15)))
          CFI (cfiCond40) V0 load(1, XDATA, add(CFA_XSP16, literal(-14)))
          CFI (cfiCond40) V1 load(1, XDATA, add(CFA_XSP16, literal(-13)))
          CFI (cfiCond40) V2 load(1, XDATA, add(CFA_XSP16, literal(-12)))
          CFI (cfiCond40) V3 load(1, XDATA, add(CFA_XSP16, literal(-11)))
          CFI (cfiCond40) V4 load(1, XDATA, add(CFA_XSP16, literal(-10)))
          CFI (cfiCond40) V5 load(1, XDATA, add(CFA_XSP16, literal(-9)))
          CFI (cfiCond40) V6 load(1, XDATA, add(CFA_XSP16, literal(-8)))
          CFI (cfiCond40) V7 load(1, XDATA, add(CFA_XSP16, literal(-7)))
          CFI (cfiCond40) R7 load(1, XDATA, add(CFA_XSP16, literal(-6)))
          CFI (cfiCond40) ?RET_LOW load(1, XDATA, add(CFA_XSP16, literal(-5)))
          CFI (cfiCond40) ?RET_HIGH load(1, XDATA, add(CFA_XSP16, literal(-4)))
          CFI (cfiCond40) ?BRET_EXT load(1, XDATA, add(CFA_XSP16, literal(-3)))
          CFI (cfiCond40) DPL0 load(1, XDATA, add(CFA_XSP16, literal(-2)))
          CFI (cfiCond40) DPH0 load(1, XDATA, add(CFA_XSP16, literal(-1)))
          CFI (cfiCond40) CFA_SP SP+-2
          CFI (cfiCond40) CFA_XSP16 add(XSP16, 144)
          CFI Block cfiCond41 Using cfiCommon0
          CFI (cfiCond41) Function zb_ReceiveDataIndication
          CFI (cfiCond41) Conditional ??CrossCallReturnLabel_23
          CFI (cfiCond41) R6 load(1, XDATA, add(CFA_XSP16, literal(-16)))
          CFI (cfiCond41) VB load(1, XDATA, add(CFA_XSP16, literal(-15)))
          CFI (cfiCond41) V0 load(1, XDATA, add(CFA_XSP16, literal(-14)))
          CFI (cfiCond41) V1 load(1, XDATA, add(CFA_XSP16, literal(-13)))
          CFI (cfiCond41) V2 load(1, XDATA, add(CFA_XSP16, literal(-12)))
          CFI (cfiCond41) V3 load(1, XDATA, add(CFA_XSP16, literal(-11)))
          CFI (cfiCond41) V4 load(1, XDATA, add(CFA_XSP16, literal(-10)))
          CFI (cfiCond41) V5 load(1, XDATA, add(CFA_XSP16, literal(-9)))
          CFI (cfiCond41) V6 load(1, XDATA, add(CFA_XSP16, literal(-8)))
          CFI (cfiCond41) V7 load(1, XDATA, add(CFA_XSP16, literal(-7)))
          CFI (cfiCond41) R7 load(1, XDATA, add(CFA_XSP16, literal(-6)))
          CFI (cfiCond41) ?RET_LOW load(1, XDATA, add(CFA_XSP16, literal(-5)))
          CFI (cfiCond41) ?RET_HIGH load(1, XDATA, add(CFA_XSP16, literal(-4)))
          CFI (cfiCond41) ?BRET_EXT load(1, XDATA, add(CFA_XSP16, literal(-3)))
          CFI (cfiCond41) DPL0 load(1, XDATA, add(CFA_XSP16, literal(-2)))
          CFI (cfiCond41) DPH0 load(1, XDATA, add(CFA_XSP16, literal(-1)))
          CFI (cfiCond41) CFA_SP SP+-2
          CFI (cfiCond41) CFA_XSP16 add(XSP16, 148)
          CFI Block cfiPicker42 Using cfiCommon1
          CFI (cfiPicker42) NoFunction
          CFI (cfiPicker42) Picker
        MOV     DPL,R6
        MOV     DPH,R7
          CFI EndBlock cfiCond37
          CFI EndBlock cfiCond38
          CFI EndBlock cfiCond39
          CFI EndBlock cfiCond40
          CFI EndBlock cfiCond41
          CFI EndBlock cfiPicker42
        REQUIRE ??Subroutine11_0
        ; // Fall through to label ??Subroutine11_0

        RSEG BANKED_CODE:CODE:NOROOT(0)
??Subroutine11_0:
          CFI Block cfiCond43 Using cfiCommon0
          CFI Function zb_ReceiveDataIndication
          CFI Conditional ??CrossCallReturnLabel_17
          CFI R6 load(1, XDATA, add(CFA_XSP16, literal(-16)))
          CFI VB load(1, XDATA, add(CFA_XSP16, literal(-15)))
          CFI V0 load(1, XDATA, add(CFA_XSP16, literal(-14)))
          CFI V1 load(1, XDATA, add(CFA_XSP16, literal(-13)))
          CFI V2 load(1, XDATA, add(CFA_XSP16, literal(-12)))
          CFI V3 load(1, XDATA, add(CFA_XSP16, literal(-11)))
          CFI V4 load(1, XDATA, add(CFA_XSP16, literal(-10)))
          CFI V5 load(1, XDATA, add(CFA_XSP16, literal(-9)))
          CFI V6 load(1, XDATA, add(CFA_XSP16, literal(-8)))
          CFI V7 load(1, XDATA, add(CFA_XSP16, literal(-7)))
          CFI R7 load(1, XDATA, add(CFA_XSP16, literal(-6)))
          CFI ?RET_LOW load(1, XDATA, add(CFA_XSP16, literal(-5)))
          CFI ?RET_HIGH load(1, XDATA, add(CFA_XSP16, literal(-4)))
          CFI ?BRET_EXT load(1, XDATA, add(CFA_XSP16, literal(-3)))
          CFI DPL0 load(1, XDATA, add(CFA_XSP16, literal(-2)))
          CFI DPH0 load(1, XDATA, add(CFA_XSP16, literal(-1)))
          CFI CFA_SP SP+-2
          CFI CFA_XSP16 add(XSP16, 146)
          CFI Block cfiCond44 Using cfiCommon0
          CFI (cfiCond44) Function zb_ReceiveDataIndication
          CFI (cfiCond44) Conditional ??CrossCallReturnLabel_18
          CFI (cfiCond44) R6 load(1, XDATA, add(CFA_XSP16, literal(-16)))
          CFI (cfiCond44) VB load(1, XDATA, add(CFA_XSP16, literal(-15)))
          CFI (cfiCond44) V0 load(1, XDATA, add(CFA_XSP16, literal(-14)))
          CFI (cfiCond44) V1 load(1, XDATA, add(CFA_XSP16, literal(-13)))
          CFI (cfiCond44) V2 load(1, XDATA, add(CFA_XSP16, literal(-12)))
          CFI (cfiCond44) V3 load(1, XDATA, add(CFA_XSP16, literal(-11)))
          CFI (cfiCond44) V4 load(1, XDATA, add(CFA_XSP16, literal(-10)))
          CFI (cfiCond44) V5 load(1, XDATA, add(CFA_XSP16, literal(-9)))
          CFI (cfiCond44) V6 load(1, XDATA, add(CFA_XSP16, literal(-8)))
          CFI (cfiCond44) V7 load(1, XDATA, add(CFA_XSP16, literal(-7)))
          CFI (cfiCond44) R7 load(1, XDATA, add(CFA_XSP16, literal(-6)))
          CFI (cfiCond44) ?RET_LOW load(1, XDATA, add(CFA_XSP16, literal(-5)))
          CFI (cfiCond44) ?RET_HIGH load(1, XDATA, add(CFA_XSP16, literal(-4)))
          CFI (cfiCond44) ?BRET_EXT load(1, XDATA, add(CFA_XSP16, literal(-3)))
          CFI (cfiCond44) DPL0 load(1, XDATA, add(CFA_XSP16, literal(-2)))
          CFI (cfiCond44) DPH0 load(1, XDATA, add(CFA_XSP16, literal(-1)))
          CFI (cfiCond44) CFA_SP SP+-2
          CFI (cfiCond44) CFA_XSP16 add(XSP16, 146)
          CFI Block cfiCond45 Using cfiCommon0
          CFI (cfiCond45) Function zb_ReceiveDataIndication
          CFI (cfiCond45) Conditional ??CrossCallReturnLabel_19
          CFI (cfiCond45) R6 load(1, XDATA, add(CFA_XSP16, literal(-16)))
          CFI (cfiCond45) VB load(1, XDATA, add(CFA_XSP16, literal(-15)))
          CFI (cfiCond45) V0 load(1, XDATA, add(CFA_XSP16, literal(-14)))
          CFI (cfiCond45) V1 load(1, XDATA, add(CFA_XSP16, literal(-13)))
          CFI (cfiCond45) V2 load(1, XDATA, add(CFA_XSP16, literal(-12)))
          CFI (cfiCond45) V3 load(1, XDATA, add(CFA_XSP16, literal(-11)))
          CFI (cfiCond45) V4 load(1, XDATA, add(CFA_XSP16, literal(-10)))
          CFI (cfiCond45) V5 load(1, XDATA, add(CFA_XSP16, literal(-9)))
          CFI (cfiCond45) V6 load(1, XDATA, add(CFA_XSP16, literal(-8)))
          CFI (cfiCond45) V7 load(1, XDATA, add(CFA_XSP16, literal(-7)))
          CFI (cfiCond45) R7 load(1, XDATA, add(CFA_XSP16, literal(-6)))
          CFI (cfiCond45) ?RET_LOW load(1, XDATA, add(CFA_XSP16, literal(-5)))
          CFI (cfiCond45) ?RET_HIGH load(1, XDATA, add(CFA_XSP16, literal(-4)))
          CFI (cfiCond45) ?BRET_EXT load(1, XDATA, add(CFA_XSP16, literal(-3)))
          CFI (cfiCond45) DPL0 load(1, XDATA, add(CFA_XSP16, literal(-2)))
          CFI (cfiCond45) DPH0 load(1, XDATA, add(CFA_XSP16, literal(-1)))
          CFI (cfiCond45) CFA_SP SP+-2
          CFI (cfiCond45) CFA_XSP16 add(XSP16, 146)
          CFI Block cfiCond46 Using cfiCommon0
          CFI (cfiCond46) Function zb_ReceiveDataIndication
          CFI (cfiCond46) Conditional ??CrossCallReturnLabel_20
          CFI (cfiCond46) R6 load(1, XDATA, add(CFA_XSP16, literal(-16)))
          CFI (cfiCond46) VB load(1, XDATA, add(CFA_XSP16, literal(-15)))
          CFI (cfiCond46) V0 load(1, XDATA, add(CFA_XSP16, literal(-14)))
          CFI (cfiCond46) V1 load(1, XDATA, add(CFA_XSP16, literal(-13)))
          CFI (cfiCond46) V2 load(1, XDATA, add(CFA_XSP16, literal(-12)))
          CFI (cfiCond46) V3 load(1, XDATA, add(CFA_XSP16, literal(-11)))
          CFI (cfiCond46) V4 load(1, XDATA, add(CFA_XSP16, literal(-10)))
          CFI (cfiCond46) V5 load(1, XDATA, add(CFA_XSP16, literal(-9)))
          CFI (cfiCond46) V6 load(1, XDATA, add(CFA_XSP16, literal(-8)))
          CFI (cfiCond46) V7 load(1, XDATA, add(CFA_XSP16, literal(-7)))
          CFI (cfiCond46) R7 load(1, XDATA, add(CFA_XSP16, literal(-6)))
          CFI (cfiCond46) ?RET_LOW load(1, XDATA, add(CFA_XSP16, literal(-5)))
          CFI (cfiCond46) ?RET_HIGH load(1, XDATA, add(CFA_XSP16, literal(-4)))
          CFI (cfiCond46) ?BRET_EXT load(1, XDATA, add(CFA_XSP16, literal(-3)))
          CFI (cfiCond46) DPL0 load(1, XDATA, add(CFA_XSP16, literal(-2)))
          CFI (cfiCond46) DPH0 load(1, XDATA, add(CFA_XSP16, literal(-1)))
          CFI (cfiCond46) CFA_SP SP+-2
          CFI (cfiCond46) CFA_XSP16 add(XSP16, 144)
          CFI Block cfiCond47 Using cfiCommon0
          CFI (cfiCond47) Function zb_ReceiveDataIndication
          CFI (cfiCond47) Conditional ??CrossCallReturnLabel_21
          CFI (cfiCond47) R6 load(1, XDATA, add(CFA_XSP16, literal(-16)))
          CFI (cfiCond47) VB load(1, XDATA, add(CFA_XSP16, literal(-15)))
          CFI (cfiCond47) V0 load(1, XDATA, add(CFA_XSP16, literal(-14)))
          CFI (cfiCond47) V1 load(1, XDATA, add(CFA_XSP16, literal(-13)))
          CFI (cfiCond47) V2 load(1, XDATA, add(CFA_XSP16, literal(-12)))
          CFI (cfiCond47) V3 load(1, XDATA, add(CFA_XSP16, literal(-11)))
          CFI (cfiCond47) V4 load(1, XDATA, add(CFA_XSP16, literal(-10)))
          CFI (cfiCond47) V5 load(1, XDATA, add(CFA_XSP16, literal(-9)))
          CFI (cfiCond47) V6 load(1, XDATA, add(CFA_XSP16, literal(-8)))
          CFI (cfiCond47) V7 load(1, XDATA, add(CFA_XSP16, literal(-7)))
          CFI (cfiCond47) R7 load(1, XDATA, add(CFA_XSP16, literal(-6)))
          CFI (cfiCond47) ?RET_LOW load(1, XDATA, add(CFA_XSP16, literal(-5)))
          CFI (cfiCond47) ?RET_HIGH load(1, XDATA, add(CFA_XSP16, literal(-4)))
          CFI (cfiCond47) ?BRET_EXT load(1, XDATA, add(CFA_XSP16, literal(-3)))
          CFI (cfiCond47) DPL0 load(1, XDATA, add(CFA_XSP16, literal(-2)))
          CFI (cfiCond47) DPH0 load(1, XDATA, add(CFA_XSP16, literal(-1)))
          CFI (cfiCond47) CFA_SP SP+-2
          CFI (cfiCond47) CFA_XSP16 add(XSP16, 144)
          CFI Block cfiCond48 Using cfiCommon0
          CFI (cfiCond48) Function zb_ReceiveDataIndication
          CFI (cfiCond48) Conditional ??CrossCallReturnLabel_22
          CFI (cfiCond48) R6 load(1, XDATA, add(CFA_XSP16, literal(-16)))
          CFI (cfiCond48) VB load(1, XDATA, add(CFA_XSP16, literal(-15)))
          CFI (cfiCond48) V0 load(1, XDATA, add(CFA_XSP16, literal(-14)))
          CFI (cfiCond48) V1 load(1, XDATA, add(CFA_XSP16, literal(-13)))
          CFI (cfiCond48) V2 load(1, XDATA, add(CFA_XSP16, literal(-12)))
          CFI (cfiCond48) V3 load(1, XDATA, add(CFA_XSP16, literal(-11)))
          CFI (cfiCond48) V4 load(1, XDATA, add(CFA_XSP16, literal(-10)))
          CFI (cfiCond48) V5 load(1, XDATA, add(CFA_XSP16, literal(-9)))
          CFI (cfiCond48) V6 load(1, XDATA, add(CFA_XSP16, literal(-8)))
          CFI (cfiCond48) V7 load(1, XDATA, add(CFA_XSP16, literal(-7)))
          CFI (cfiCond48) R7 load(1, XDATA, add(CFA_XSP16, literal(-6)))
          CFI (cfiCond48) ?RET_LOW load(1, XDATA, add(CFA_XSP16, literal(-5)))
          CFI (cfiCond48) ?RET_HIGH load(1, XDATA, add(CFA_XSP16, literal(-4)))
          CFI (cfiCond48) ?BRET_EXT load(1, XDATA, add(CFA_XSP16, literal(-3)))
          CFI (cfiCond48) DPL0 load(1, XDATA, add(CFA_XSP16, literal(-2)))
          CFI (cfiCond48) DPH0 load(1, XDATA, add(CFA_XSP16, literal(-1)))
          CFI (cfiCond48) CFA_SP SP+-2
          CFI (cfiCond48) CFA_XSP16 add(XSP16, 144)
          CFI Block cfiCond49 Using cfiCommon0
          CFI (cfiCond49) Function zb_ReceiveDataIndication
          CFI (cfiCond49) Conditional ??CrossCallReturnLabel_23
          CFI (cfiCond49) R6 load(1, XDATA, add(CFA_XSP16, literal(-16)))
          CFI (cfiCond49) VB load(1, XDATA, add(CFA_XSP16, literal(-15)))
          CFI (cfiCond49) V0 load(1, XDATA, add(CFA_XSP16, literal(-14)))
          CFI (cfiCond49) V1 load(1, XDATA, add(CFA_XSP16, literal(-13)))
          CFI (cfiCond49) V2 load(1, XDATA, add(CFA_XSP16, literal(-12)))
          CFI (cfiCond49) V3 load(1, XDATA, add(CFA_XSP16, literal(-11)))
          CFI (cfiCond49) V4 load(1, XDATA, add(CFA_XSP16, literal(-10)))
          CFI (cfiCond49) V5 load(1, XDATA, add(CFA_XSP16, literal(-9)))
          CFI (cfiCond49) V6 load(1, XDATA, add(CFA_XSP16, literal(-8)))
          CFI (cfiCond49) V7 load(1, XDATA, add(CFA_XSP16, literal(-7)))
          CFI (cfiCond49) R7 load(1, XDATA, add(CFA_XSP16, literal(-6)))
          CFI (cfiCond49) ?RET_LOW load(1, XDATA, add(CFA_XSP16, literal(-5)))
          CFI (cfiCond49) ?RET_HIGH load(1, XDATA, add(CFA_XSP16, literal(-4)))
          CFI (cfiCond49) ?BRET_EXT load(1, XDATA, add(CFA_XSP16, literal(-3)))
          CFI (cfiCond49) DPL0 load(1, XDATA, add(CFA_XSP16, literal(-2)))
          CFI (cfiCond49) DPH0 load(1, XDATA, add(CFA_XSP16, literal(-1)))
          CFI (cfiCond49) CFA_SP SP+-2
          CFI (cfiCond49) CFA_XSP16 add(XSP16, 148)
          CFI Block cfiPicker50 Using cfiCommon1
          CFI (cfiPicker50) NoFunction
          CFI (cfiPicker50) Picker
        MOVX    A,@DPTR
        MOV     ?V2,A
        MOV     R0,#?V2
        RET
          CFI EndBlock cfiCond43
          CFI EndBlock cfiCond44
          CFI EndBlock cfiCond45
          CFI EndBlock cfiCond46
          CFI EndBlock cfiCond47
          CFI EndBlock cfiCond48
          CFI EndBlock cfiCond49
          CFI EndBlock cfiPicker50

        RSEG BANKED_CODE:CODE:NOROOT(0)
?Subroutine1:
          CFI Block cfiCond51 Using cfiCommon0
          CFI Function zb_ReceiveDataIndication
          CFI Conditional ??CrossCallReturnLabel_26
          CFI R6 load(1, XDATA, add(CFA_XSP16, literal(-16)))
          CFI VB load(1, XDATA, add(CFA_XSP16, literal(-15)))
          CFI V0 load(1, XDATA, add(CFA_XSP16, literal(-14)))
          CFI V1 load(1, XDATA, add(CFA_XSP16, literal(-13)))
          CFI V2 load(1, XDATA, add(CFA_XSP16, literal(-12)))
          CFI V3 load(1, XDATA, add(CFA_XSP16, literal(-11)))
          CFI V4 load(1, XDATA, add(CFA_XSP16, literal(-10)))
          CFI V5 load(1, XDATA, add(CFA_XSP16, literal(-9)))
          CFI V6 load(1, XDATA, add(CFA_XSP16, literal(-8)))
          CFI V7 load(1, XDATA, add(CFA_XSP16, literal(-7)))
          CFI R7 load(1, XDATA, add(CFA_XSP16, literal(-6)))
          CFI ?RET_LOW load(1, XDATA, add(CFA_XSP16, literal(-5)))
          CFI ?RET_HIGH load(1, XDATA, add(CFA_XSP16, literal(-4)))
          CFI ?BRET_EXT load(1, XDATA, add(CFA_XSP16, literal(-3)))
          CFI DPL0 load(1, XDATA, add(CFA_XSP16, literal(-2)))
          CFI DPH0 load(1, XDATA, add(CFA_XSP16, literal(-1)))
          CFI CFA_SP SP+-2
          CFI CFA_XSP16 add(XSP16, 144)
          CFI Block cfiCond52 Using cfiCommon0
          CFI (cfiCond52) Function zb_ReceiveDataIndication
          CFI (cfiCond52) Conditional ??CrossCallReturnLabel_27
          CFI (cfiCond52) R6 load(1, XDATA, add(CFA_XSP16, literal(-16)))
          CFI (cfiCond52) VB load(1, XDATA, add(CFA_XSP16, literal(-15)))
          CFI (cfiCond52) V0 load(1, XDATA, add(CFA_XSP16, literal(-14)))
          CFI (cfiCond52) V1 load(1, XDATA, add(CFA_XSP16, literal(-13)))
          CFI (cfiCond52) V2 load(1, XDATA, add(CFA_XSP16, literal(-12)))
          CFI (cfiCond52) V3 load(1, XDATA, add(CFA_XSP16, literal(-11)))
          CFI (cfiCond52) V4 load(1, XDATA, add(CFA_XSP16, literal(-10)))
          CFI (cfiCond52) V5 load(1, XDATA, add(CFA_XSP16, literal(-9)))
          CFI (cfiCond52) V6 load(1, XDATA, add(CFA_XSP16, literal(-8)))
          CFI (cfiCond52) V7 load(1, XDATA, add(CFA_XSP16, literal(-7)))
          CFI (cfiCond52) R7 load(1, XDATA, add(CFA_XSP16, literal(-6)))
          CFI (cfiCond52) ?RET_LOW load(1, XDATA, add(CFA_XSP16, literal(-5)))
          CFI (cfiCond52) ?RET_HIGH load(1, XDATA, add(CFA_XSP16, literal(-4)))
          CFI (cfiCond52) ?BRET_EXT load(1, XDATA, add(CFA_XSP16, literal(-3)))
          CFI (cfiCond52) DPL0 load(1, XDATA, add(CFA_XSP16, literal(-2)))
          CFI (cfiCond52) DPH0 load(1, XDATA, add(CFA_XSP16, literal(-1)))
          CFI (cfiCond52) CFA_SP SP+-2
          CFI (cfiCond52) CFA_XSP16 add(XSP16, 144)
          CFI Block cfiCond53 Using cfiCommon0
          CFI (cfiCond53) Function zb_ReceiveDataIndication
          CFI (cfiCond53) Conditional ??CrossCallReturnLabel_28
          CFI (cfiCond53) R6 load(1, XDATA, add(CFA_XSP16, literal(-16)))
          CFI (cfiCond53) VB load(1, XDATA, add(CFA_XSP16, literal(-15)))
          CFI (cfiCond53) V0 load(1, XDATA, add(CFA_XSP16, literal(-14)))
          CFI (cfiCond53) V1 load(1, XDATA, add(CFA_XSP16, literal(-13)))
          CFI (cfiCond53) V2 load(1, XDATA, add(CFA_XSP16, literal(-12)))
          CFI (cfiCond53) V3 load(1, XDATA, add(CFA_XSP16, literal(-11)))
          CFI (cfiCond53) V4 load(1, XDATA, add(CFA_XSP16, literal(-10)))
          CFI (cfiCond53) V5 load(1, XDATA, add(CFA_XSP16, literal(-9)))
          CFI (cfiCond53) V6 load(1, XDATA, add(CFA_XSP16, literal(-8)))
          CFI (cfiCond53) V7 load(1, XDATA, add(CFA_XSP16, literal(-7)))
          CFI (cfiCond53) R7 load(1, XDATA, add(CFA_XSP16, literal(-6)))
          CFI (cfiCond53) ?RET_LOW load(1, XDATA, add(CFA_XSP16, literal(-5)))
          CFI (cfiCond53) ?RET_HIGH load(1, XDATA, add(CFA_XSP16, literal(-4)))
          CFI (cfiCond53) ?BRET_EXT load(1, XDATA, add(CFA_XSP16, literal(-3)))
          CFI (cfiCond53) DPL0 load(1, XDATA, add(CFA_XSP16, literal(-2)))
          CFI (cfiCond53) DPH0 load(1, XDATA, add(CFA_XSP16, literal(-1)))
          CFI (cfiCond53) CFA_SP SP+-2
          CFI (cfiCond53) CFA_XSP16 add(XSP16, 144)
          CFI Block cfiCond54 Using cfiCommon0
          CFI (cfiCond54) Function zb_ReceiveDataIndication
          CFI (cfiCond54) Conditional ??CrossCallReturnLabel_29
          CFI (cfiCond54) R6 load(1, XDATA, add(CFA_XSP16, literal(-16)))
          CFI (cfiCond54) VB load(1, XDATA, add(CFA_XSP16, literal(-15)))
          CFI (cfiCond54) V0 load(1, XDATA, add(CFA_XSP16, literal(-14)))
          CFI (cfiCond54) V1 load(1, XDATA, add(CFA_XSP16, literal(-13)))
          CFI (cfiCond54) V2 load(1, XDATA, add(CFA_XSP16, literal(-12)))
          CFI (cfiCond54) V3 load(1, XDATA, add(CFA_XSP16, literal(-11)))
          CFI (cfiCond54) V4 load(1, XDATA, add(CFA_XSP16, literal(-10)))
          CFI (cfiCond54) V5 load(1, XDATA, add(CFA_XSP16, literal(-9)))
          CFI (cfiCond54) V6 load(1, XDATA, add(CFA_XSP16, literal(-8)))
          CFI (cfiCond54) V7 load(1, XDATA, add(CFA_XSP16, literal(-7)))
          CFI (cfiCond54) R7 load(1, XDATA, add(CFA_XSP16, literal(-6)))
          CFI (cfiCond54) ?RET_LOW load(1, XDATA, add(CFA_XSP16, literal(-5)))
          CFI (cfiCond54) ?RET_HIGH load(1, XDATA, add(CFA_XSP16, literal(-4)))
          CFI (cfiCond54) ?BRET_EXT load(1, XDATA, add(CFA_XSP16, literal(-3)))
          CFI (cfiCond54) DPL0 load(1, XDATA, add(CFA_XSP16, literal(-2)))
          CFI (cfiCond54) DPH0 load(1, XDATA, add(CFA_XSP16, literal(-1)))
          CFI (cfiCond54) CFA_SP SP+-2
          CFI (cfiCond54) CFA_XSP16 add(XSP16, 144)
          CFI Block cfiCond55 Using cfiCommon0
          CFI (cfiCond55) Function zb_ReceiveDataIndication
          CFI (cfiCond55) Conditional ??CrossCallReturnLabel_30
          CFI (cfiCond55) R6 load(1, XDATA, add(CFA_XSP16, literal(-16)))
          CFI (cfiCond55) VB load(1, XDATA, add(CFA_XSP16, literal(-15)))
          CFI (cfiCond55) V0 load(1, XDATA, add(CFA_XSP16, literal(-14)))
          CFI (cfiCond55) V1 load(1, XDATA, add(CFA_XSP16, literal(-13)))
          CFI (cfiCond55) V2 load(1, XDATA, add(CFA_XSP16, literal(-12)))
          CFI (cfiCond55) V3 load(1, XDATA, add(CFA_XSP16, literal(-11)))
          CFI (cfiCond55) V4 load(1, XDATA, add(CFA_XSP16, literal(-10)))
          CFI (cfiCond55) V5 load(1, XDATA, add(CFA_XSP16, literal(-9)))
          CFI (cfiCond55) V6 load(1, XDATA, add(CFA_XSP16, literal(-8)))
          CFI (cfiCond55) V7 load(1, XDATA, add(CFA_XSP16, literal(-7)))
          CFI (cfiCond55) R7 load(1, XDATA, add(CFA_XSP16, literal(-6)))
          CFI (cfiCond55) ?RET_LOW load(1, XDATA, add(CFA_XSP16, literal(-5)))
          CFI (cfiCond55) ?RET_HIGH load(1, XDATA, add(CFA_XSP16, literal(-4)))
          CFI (cfiCond55) ?BRET_EXT load(1, XDATA, add(CFA_XSP16, literal(-3)))
          CFI (cfiCond55) DPL0 load(1, XDATA, add(CFA_XSP16, literal(-2)))
          CFI (cfiCond55) DPH0 load(1, XDATA, add(CFA_XSP16, literal(-1)))
          CFI (cfiCond55) CFA_SP SP+-2
          CFI (cfiCond55) CFA_XSP16 add(XSP16, 144)
          CFI Block cfiPicker56 Using cfiCommon1
          CFI (cfiPicker56) NoFunction
          CFI (cfiPicker56) Picker
        INC     DPTR
        MOV     R6,DPL
        MOV     R7,DPH
          CFI EndBlock cfiCond51
          CFI EndBlock cfiCond52
          CFI EndBlock cfiCond53
          CFI EndBlock cfiCond54
          CFI EndBlock cfiCond55
          CFI EndBlock cfiPicker56
        ; Setup parameters for call to function sprintf
        ; Setup parameters for call to function sprintf
        ; Setup parameters for call to function sprintf
        ; Setup parameters for call to function sprintf
        ; Setup parameters for call to function sprintf
        REQUIRE ??Subroutine12_0
        ; // Fall through to label ??Subroutine12_0

        RSEG BANKED_CODE:CODE:NOROOT(0)
??Subroutine12_0:
          CFI Block cfiCond57 Using cfiCommon0
          CFI Function zb_ReceiveDataIndication
          CFI Conditional ??CrossCallReturnLabel_24
          CFI R6 load(1, XDATA, add(CFA_XSP16, literal(-16)))
          CFI VB load(1, XDATA, add(CFA_XSP16, literal(-15)))
          CFI V0 load(1, XDATA, add(CFA_XSP16, literal(-14)))
          CFI V1 load(1, XDATA, add(CFA_XSP16, literal(-13)))
          CFI V2 load(1, XDATA, add(CFA_XSP16, literal(-12)))
          CFI V3 load(1, XDATA, add(CFA_XSP16, literal(-11)))
          CFI V4 load(1, XDATA, add(CFA_XSP16, literal(-10)))
          CFI V5 load(1, XDATA, add(CFA_XSP16, literal(-9)))
          CFI V6 load(1, XDATA, add(CFA_XSP16, literal(-8)))
          CFI V7 load(1, XDATA, add(CFA_XSP16, literal(-7)))
          CFI R7 load(1, XDATA, add(CFA_XSP16, literal(-6)))
          CFI ?RET_LOW load(1, XDATA, add(CFA_XSP16, literal(-5)))
          CFI ?RET_HIGH load(1, XDATA, add(CFA_XSP16, literal(-4)))
          CFI ?BRET_EXT load(1, XDATA, add(CFA_XSP16, literal(-3)))
          CFI DPL0 load(1, XDATA, add(CFA_XSP16, literal(-2)))
          CFI DPH0 load(1, XDATA, add(CFA_XSP16, literal(-1)))
          CFI CFA_SP SP+-2
          CFI CFA_XSP16 add(XSP16, 144)
          CFI Block cfiCond58 Using cfiCommon0
          CFI (cfiCond58) Function zb_ReceiveDataIndication
          CFI (cfiCond58) Conditional ??CrossCallReturnLabel_25
          CFI (cfiCond58) R6 load(1, XDATA, add(CFA_XSP16, literal(-16)))
          CFI (cfiCond58) VB load(1, XDATA, add(CFA_XSP16, literal(-15)))
          CFI (cfiCond58) V0 load(1, XDATA, add(CFA_XSP16, literal(-14)))
          CFI (cfiCond58) V1 load(1, XDATA, add(CFA_XSP16, literal(-13)))
          CFI (cfiCond58) V2 load(1, XDATA, add(CFA_XSP16, literal(-12)))
          CFI (cfiCond58) V3 load(1, XDATA, add(CFA_XSP16, literal(-11)))
          CFI (cfiCond58) V4 load(1, XDATA, add(CFA_XSP16, literal(-10)))
          CFI (cfiCond58) V5 load(1, XDATA, add(CFA_XSP16, literal(-9)))
          CFI (cfiCond58) V6 load(1, XDATA, add(CFA_XSP16, literal(-8)))
          CFI (cfiCond58) V7 load(1, XDATA, add(CFA_XSP16, literal(-7)))
          CFI (cfiCond58) R7 load(1, XDATA, add(CFA_XSP16, literal(-6)))
          CFI (cfiCond58) ?RET_LOW load(1, XDATA, add(CFA_XSP16, literal(-5)))
          CFI (cfiCond58) ?RET_HIGH load(1, XDATA, add(CFA_XSP16, literal(-4)))
          CFI (cfiCond58) ?BRET_EXT load(1, XDATA, add(CFA_XSP16, literal(-3)))
          CFI (cfiCond58) DPL0 load(1, XDATA, add(CFA_XSP16, literal(-2)))
          CFI (cfiCond58) DPH0 load(1, XDATA, add(CFA_XSP16, literal(-1)))
          CFI (cfiCond58) CFA_SP SP+-2
          CFI (cfiCond58) CFA_XSP16 add(XSP16, 146)
          CFI Block cfiCond59 Using cfiCommon0
          CFI (cfiCond59) Function zb_ReceiveDataIndication
          CFI (cfiCond59) Conditional ??CrossCallReturnLabel_26
          CFI (cfiCond59) R6 load(1, XDATA, add(CFA_XSP16, literal(-16)))
          CFI (cfiCond59) VB load(1, XDATA, add(CFA_XSP16, literal(-15)))
          CFI (cfiCond59) V0 load(1, XDATA, add(CFA_XSP16, literal(-14)))
          CFI (cfiCond59) V1 load(1, XDATA, add(CFA_XSP16, literal(-13)))
          CFI (cfiCond59) V2 load(1, XDATA, add(CFA_XSP16, literal(-12)))
          CFI (cfiCond59) V3 load(1, XDATA, add(CFA_XSP16, literal(-11)))
          CFI (cfiCond59) V4 load(1, XDATA, add(CFA_XSP16, literal(-10)))
          CFI (cfiCond59) V5 load(1, XDATA, add(CFA_XSP16, literal(-9)))
          CFI (cfiCond59) V6 load(1, XDATA, add(CFA_XSP16, literal(-8)))
          CFI (cfiCond59) V7 load(1, XDATA, add(CFA_XSP16, literal(-7)))
          CFI (cfiCond59) R7 load(1, XDATA, add(CFA_XSP16, literal(-6)))
          CFI (cfiCond59) ?RET_LOW load(1, XDATA, add(CFA_XSP16, literal(-5)))
          CFI (cfiCond59) ?RET_HIGH load(1, XDATA, add(CFA_XSP16, literal(-4)))
          CFI (cfiCond59) ?BRET_EXT load(1, XDATA, add(CFA_XSP16, literal(-3)))
          CFI (cfiCond59) DPL0 load(1, XDATA, add(CFA_XSP16, literal(-2)))
          CFI (cfiCond59) DPH0 load(1, XDATA, add(CFA_XSP16, literal(-1)))
          CFI (cfiCond59) CFA_SP SP+-2
          CFI (cfiCond59) CFA_XSP16 add(XSP16, 144)
          CFI Block cfiCond60 Using cfiCommon0
          CFI (cfiCond60) Function zb_ReceiveDataIndication
          CFI (cfiCond60) Conditional ??CrossCallReturnLabel_27
          CFI (cfiCond60) R6 load(1, XDATA, add(CFA_XSP16, literal(-16)))
          CFI (cfiCond60) VB load(1, XDATA, add(CFA_XSP16, literal(-15)))
          CFI (cfiCond60) V0 load(1, XDATA, add(CFA_XSP16, literal(-14)))
          CFI (cfiCond60) V1 load(1, XDATA, add(CFA_XSP16, literal(-13)))
          CFI (cfiCond60) V2 load(1, XDATA, add(CFA_XSP16, literal(-12)))
          CFI (cfiCond60) V3 load(1, XDATA, add(CFA_XSP16, literal(-11)))
          CFI (cfiCond60) V4 load(1, XDATA, add(CFA_XSP16, literal(-10)))
          CFI (cfiCond60) V5 load(1, XDATA, add(CFA_XSP16, literal(-9)))
          CFI (cfiCond60) V6 load(1, XDATA, add(CFA_XSP16, literal(-8)))
          CFI (cfiCond60) V7 load(1, XDATA, add(CFA_XSP16, literal(-7)))
          CFI (cfiCond60) R7 load(1, XDATA, add(CFA_XSP16, literal(-6)))
          CFI (cfiCond60) ?RET_LOW load(1, XDATA, add(CFA_XSP16, literal(-5)))
          CFI (cfiCond60) ?RET_HIGH load(1, XDATA, add(CFA_XSP16, literal(-4)))
          CFI (cfiCond60) ?BRET_EXT load(1, XDATA, add(CFA_XSP16, literal(-3)))
          CFI (cfiCond60) DPL0 load(1, XDATA, add(CFA_XSP16, literal(-2)))
          CFI (cfiCond60) DPH0 load(1, XDATA, add(CFA_XSP16, literal(-1)))
          CFI (cfiCond60) CFA_SP SP+-2
          CFI (cfiCond60) CFA_XSP16 add(XSP16, 144)
          CFI Block cfiCond61 Using cfiCommon0
          CFI (cfiCond61) Function zb_ReceiveDataIndication
          CFI (cfiCond61) Conditional ??CrossCallReturnLabel_28
          CFI (cfiCond61) R6 load(1, XDATA, add(CFA_XSP16, literal(-16)))
          CFI (cfiCond61) VB load(1, XDATA, add(CFA_XSP16, literal(-15)))
          CFI (cfiCond61) V0 load(1, XDATA, add(CFA_XSP16, literal(-14)))
          CFI (cfiCond61) V1 load(1, XDATA, add(CFA_XSP16, literal(-13)))
          CFI (cfiCond61) V2 load(1, XDATA, add(CFA_XSP16, literal(-12)))
          CFI (cfiCond61) V3 load(1, XDATA, add(CFA_XSP16, literal(-11)))
          CFI (cfiCond61) V4 load(1, XDATA, add(CFA_XSP16, literal(-10)))
          CFI (cfiCond61) V5 load(1, XDATA, add(CFA_XSP16, literal(-9)))
          CFI (cfiCond61) V6 load(1, XDATA, add(CFA_XSP16, literal(-8)))
          CFI (cfiCond61) V7 load(1, XDATA, add(CFA_XSP16, literal(-7)))
          CFI (cfiCond61) R7 load(1, XDATA, add(CFA_XSP16, literal(-6)))
          CFI (cfiCond61) ?RET_LOW load(1, XDATA, add(CFA_XSP16, literal(-5)))
          CFI (cfiCond61) ?RET_HIGH load(1, XDATA, add(CFA_XSP16, literal(-4)))
          CFI (cfiCond61) ?BRET_EXT load(1, XDATA, add(CFA_XSP16, literal(-3)))
          CFI (cfiCond61) DPL0 load(1, XDATA, add(CFA_XSP16, literal(-2)))
          CFI (cfiCond61) DPH0 load(1, XDATA, add(CFA_XSP16, literal(-1)))
          CFI (cfiCond61) CFA_SP SP+-2
          CFI (cfiCond61) CFA_XSP16 add(XSP16, 144)
          CFI Block cfiCond62 Using cfiCommon0
          CFI (cfiCond62) Function zb_ReceiveDataIndication
          CFI (cfiCond62) Conditional ??CrossCallReturnLabel_29
          CFI (cfiCond62) R6 load(1, XDATA, add(CFA_XSP16, literal(-16)))
          CFI (cfiCond62) VB load(1, XDATA, add(CFA_XSP16, literal(-15)))
          CFI (cfiCond62) V0 load(1, XDATA, add(CFA_XSP16, literal(-14)))
          CFI (cfiCond62) V1 load(1, XDATA, add(CFA_XSP16, literal(-13)))
          CFI (cfiCond62) V2 load(1, XDATA, add(CFA_XSP16, literal(-12)))
          CFI (cfiCond62) V3 load(1, XDATA, add(CFA_XSP16, literal(-11)))
          CFI (cfiCond62) V4 load(1, XDATA, add(CFA_XSP16, literal(-10)))
          CFI (cfiCond62) V5 load(1, XDATA, add(CFA_XSP16, literal(-9)))
          CFI (cfiCond62) V6 load(1, XDATA, add(CFA_XSP16, literal(-8)))
          CFI (cfiCond62) V7 load(1, XDATA, add(CFA_XSP16, literal(-7)))
          CFI (cfiCond62) R7 load(1, XDATA, add(CFA_XSP16, literal(-6)))
          CFI (cfiCond62) ?RET_LOW load(1, XDATA, add(CFA_XSP16, literal(-5)))
          CFI (cfiCond62) ?RET_HIGH load(1, XDATA, add(CFA_XSP16, literal(-4)))
          CFI (cfiCond62) ?BRET_EXT load(1, XDATA, add(CFA_XSP16, literal(-3)))
          CFI (cfiCond62) DPL0 load(1, XDATA, add(CFA_XSP16, literal(-2)))
          CFI (cfiCond62) DPH0 load(1, XDATA, add(CFA_XSP16, literal(-1)))
          CFI (cfiCond62) CFA_SP SP+-2
          CFI (cfiCond62) CFA_XSP16 add(XSP16, 144)
          CFI Block cfiCond63 Using cfiCommon0
          CFI (cfiCond63) Function zb_ReceiveDataIndication
          CFI (cfiCond63) Conditional ??CrossCallReturnLabel_30
          CFI (cfiCond63) R6 load(1, XDATA, add(CFA_XSP16, literal(-16)))
          CFI (cfiCond63) VB load(1, XDATA, add(CFA_XSP16, literal(-15)))
          CFI (cfiCond63) V0 load(1, XDATA, add(CFA_XSP16, literal(-14)))
          CFI (cfiCond63) V1 load(1, XDATA, add(CFA_XSP16, literal(-13)))
          CFI (cfiCond63) V2 load(1, XDATA, add(CFA_XSP16, literal(-12)))
          CFI (cfiCond63) V3 load(1, XDATA, add(CFA_XSP16, literal(-11)))
          CFI (cfiCond63) V4 load(1, XDATA, add(CFA_XSP16, literal(-10)))
          CFI (cfiCond63) V5 load(1, XDATA, add(CFA_XSP16, literal(-9)))
          CFI (cfiCond63) V6 load(1, XDATA, add(CFA_XSP16, literal(-8)))
          CFI (cfiCond63) V7 load(1, XDATA, add(CFA_XSP16, literal(-7)))
          CFI (cfiCond63) R7 load(1, XDATA, add(CFA_XSP16, literal(-6)))
          CFI (cfiCond63) ?RET_LOW load(1, XDATA, add(CFA_XSP16, literal(-5)))
          CFI (cfiCond63) ?RET_HIGH load(1, XDATA, add(CFA_XSP16, literal(-4)))
          CFI (cfiCond63) ?BRET_EXT load(1, XDATA, add(CFA_XSP16, literal(-3)))
          CFI (cfiCond63) DPL0 load(1, XDATA, add(CFA_XSP16, literal(-2)))
          CFI (cfiCond63) DPH0 load(1, XDATA, add(CFA_XSP16, literal(-1)))
          CFI (cfiCond63) CFA_SP SP+-2
          CFI (cfiCond63) CFA_XSP16 add(XSP16, 144)
          CFI Block cfiPicker64 Using cfiCommon1
          CFI (cfiPicker64) NoFunction
          CFI (cfiPicker64) Picker
        MOVX    A,@DPTR
        MOV     ?V2,A
        MOV     ?V3,#0x0
        MOV     R0,#?V2
        RET
          CFI EndBlock cfiCond57
          CFI EndBlock cfiCond58
          CFI EndBlock cfiCond59
          CFI EndBlock cfiCond60
          CFI EndBlock cfiCond61
          CFI EndBlock cfiCond62
          CFI EndBlock cfiCond63
          CFI EndBlock cfiPicker64
//  400 ///////////////////////////////////////////////////////////////////////////////
//  401 /* 节点串口初始化 */

        RSEG BANKED_CODE:CODE:NOROOT(0)
//  402 void NodeUartInit(void)
NodeUartInit:
          CFI Block cfiBlock65 Using cfiCommon0
          CFI Function NodeUartInit
        CODE
//  403 {
        FUNCALL NodeUartInit, HalUARTOpen
        LOCFRAME ISTACK, 2, STACK
        LOCFRAME PSTACK, 0, STACK
        LOCFRAME XSTACK, 29, STACK
        LOCFRAME IOVERLAY, 0, STATIC
        LOCFRAME DOVERLAY, 0, STATIC
        ARGFRAME ISTACK, 2, STACK
        ARGFRAME PSTACK, 0, STACK
        ARGFRAME XSTACK, 29, STACK
        ARGFRAME IOVERLAY, 0, STATIC
        ARGFRAME DOVERLAY, 0, STATIC
        PUSH    DPL
          CFI DPL0 Frame(CFA_SP, 4)
          CFI CFA_SP SP+-4
        PUSH    DPH
          CFI DPH0 Frame(CFA_SP, 5)
          CFI CFA_SP SP+-5
        ; Saved register size: 2
        ; Auto size: 29
        MOV     A,#-0x1d
        LCALL   ?ALLOC_XSTACK8
          CFI CFA_XSP16 add(XSP16, 29)
//  404 	halUARTCfg_t 	uartConfig; 				//halUARTCfg_t类型的结构体变量
//  405 	/* 串口配置 */
//  406 	uartConfig.configured           = TRUE;
        MOV     DPL,?XSP + 0
        MOV     DPH,?XSP + 1
        MOV     A,#0x1
        MOVX    @DPTR,A
//  407 	uartConfig.baudRate             = HAL_UART_BR_38400;		//设置波特率为9600
        LCALL   ?XSTACK_DISP0_8
        MOV     A,#0x2
        MOVX    @DPTR,A
//  408 	//禁止硬件流控，如果你的串口只有 RXD，TXD 和 GND 三条线，必须这么做；
//  409 	uartConfig.flowControl          = FALSE;
        LCALL   ?XSTACK_DISP0_8
        CLR     A
        MOVX    @DPTR,A
//  410 	uartConfig.rx.maxBufSize        = 128;		//最大接收缓冲区大小
        MOV     A,#0xa
        LCALL   ?XSTACK_DISP0_8
        MOV     A,#-0x80
        MOVX    @DPTR,A
        INC     DPTR
        CLR     A
        MOVX    @DPTR,A
//  411 	uartConfig.tx.maxBufSize        = 128; 		//最大发送缓冲区大小
        MOV     A,#0x12
        LCALL   ?XSTACK_DISP0_8
        MOV     A,#-0x80
        MOVX    @DPTR,A
        INC     DPTR
        CLR     A
        MOVX    @DPTR,A
//  412 	uartConfig.flowControlThreshold = (128 / 2);
        MOV     A,#0x3
        LCALL   ?XSTACK_DISP0_8
        MOV     A,#0x40
        MOVX    @DPTR,A
        INC     DPTR
        CLR     A
        MOVX    @DPTR,A
//  413 	uartConfig.idleTimeout          = 6;			//空闲超时时间
        MOV     A,#0x5
        LCALL   ?XSTACK_DISP0_8
        MOV     A,#0x6
        MOVX    @DPTR,A
//  414 	uartConfig.intEnable            = TRUE;		//允许中断
        MOV     A,#0x16
        LCALL   ?XSTACK_DISP0_8
        MOV     A,#0x1
        MOVX    @DPTR,A
//  415 	uartConfig.callBackFunc         = NodeUartCallBack;	//设置串口接收回调函数
        MOV     A,#0x1b
        LCALL   ?XSTACK_DISP0_8
        MOV     A,#??NodeUartCallBack?relay & 0xff
        MOVX    @DPTR,A
        INC     DPTR
        MOV     A,#(??NodeUartCallBack?relay >> 8) & 0xff
        MOVX    @DPTR,A
//  416 
//  417 	/* 打开串口，完成初始化的工作*/
//  418 	HalUARTOpen (HAL_UART_PORT_0, &uartConfig);
        ; Setup parameters for call to function HalUARTOpen
        MOV     R2,?XSP + 0
        MOV     R3,?XSP + 1
        MOV     R1,#0x0
        LCALL   ??HalUARTOpen?relay  ; Banked call to: HalUARTOpen
//  419 }
        MOV     A,#0x1d
        LJMP    ?Subroutine0 & 0xFFFF
          CFI EndBlock cfiBlock65
//  420 
//  421 

        RSEG BANKED_CODE:CODE:NOROOT(0)
//  422 void NodeUartCallBack ( uint8 port, uint8 event )
NodeUartCallBack:
          CFI Block cfiBlock66 Using cfiCommon0
          CFI Function NodeUartCallBack
        CODE
//  423 {
        FUNCALL NodeUartCallBack, HalLedSet
        LOCFRAME ISTACK, 0, STACK
        LOCFRAME PSTACK, 0, STACK
        LOCFRAME XSTACK, 11, STACK
        LOCFRAME IOVERLAY, 0, STATIC
        LOCFRAME DOVERLAY, 0, STATIC
        ARGFRAME ISTACK, 0, STACK
        ARGFRAME PSTACK, 0, STACK
        ARGFRAME XSTACK, 11, STACK
        ARGFRAME IOVERLAY, 0, STATIC
        ARGFRAME DOVERLAY, 0, STATIC
        FUNCALL NodeUartCallBack, HalLedSet
        LOCFRAME ISTACK, 0, STACK
        LOCFRAME PSTACK, 0, STACK
        LOCFRAME XSTACK, 11, STACK
        LOCFRAME IOVERLAY, 0, STATIC
        LOCFRAME DOVERLAY, 0, STATIC
        ARGFRAME ISTACK, 0, STACK
        ARGFRAME PSTACK, 0, STACK
        ARGFRAME XSTACK, 11, STACK
        ARGFRAME IOVERLAY, 0, STATIC
        ARGFRAME DOVERLAY, 0, STATIC
        FUNCALL NodeUartCallBack, Hal_UART_RxBufLen
        LOCFRAME ISTACK, 0, STACK
        LOCFRAME PSTACK, 0, STACK
        LOCFRAME XSTACK, 11, STACK
        LOCFRAME IOVERLAY, 0, STATIC
        LOCFRAME DOVERLAY, 0, STATIC
        ARGFRAME ISTACK, 0, STACK
        ARGFRAME PSTACK, 0, STACK
        ARGFRAME XSTACK, 11, STACK
        ARGFRAME IOVERLAY, 0, STATIC
        ARGFRAME DOVERLAY, 0, STATIC
        FUNCALL NodeUartCallBack, HalUARTRead
        LOCFRAME ISTACK, 0, STACK
        LOCFRAME PSTACK, 0, STACK
        LOCFRAME XSTACK, 11, STACK
        LOCFRAME IOVERLAY, 0, STATIC
        LOCFRAME DOVERLAY, 0, STATIC
        ARGFRAME ISTACK, 0, STACK
        ARGFRAME PSTACK, 0, STACK
        ARGFRAME XSTACK, 11, STACK
        ARGFRAME IOVERLAY, 0, STATIC
        ARGFRAME DOVERLAY, 0, STATIC
        FUNCALL NodeUartCallBack, HalUARTWrite
        LOCFRAME ISTACK, 0, STACK
        LOCFRAME PSTACK, 0, STACK
        LOCFRAME XSTACK, 11, STACK
        LOCFRAME IOVERLAY, 0, STATIC
        LOCFRAME DOVERLAY, 0, STATIC
        ARGFRAME ISTACK, 0, STACK
        ARGFRAME PSTACK, 0, STACK
        ARGFRAME XSTACK, 11, STACK
        ARGFRAME IOVERLAY, 0, STATIC
        ARGFRAME DOVERLAY, 0, STATIC
        REQUIRE ?V0
        REQUIRE ?V1
        MOV     A,#-0xa
        LCALL   ?BANKED_ENTER_XDATA
          CFI DPH0 load(1, XDATA, add(CFA_XSP16, literal(-1)))
          CFI DPL0 load(1, XDATA, add(CFA_XSP16, literal(-2)))
          CFI ?BRET_EXT load(1, XDATA, add(CFA_XSP16, literal(-3)))
          CFI ?RET_HIGH load(1, XDATA, add(CFA_XSP16, literal(-4)))
          CFI ?RET_LOW load(1, XDATA, add(CFA_XSP16, literal(-5)))
          CFI R7 load(1, XDATA, add(CFA_XSP16, literal(-6)))
          CFI V1 load(1, XDATA, add(CFA_XSP16, literal(-7)))
          CFI V0 load(1, XDATA, add(CFA_XSP16, literal(-8)))
          CFI VB load(1, XDATA, add(CFA_XSP16, literal(-9)))
          CFI R6 load(1, XDATA, add(CFA_XSP16, literal(-10)))
          CFI CFA_SP SP+0
          CFI CFA_XSP16 add(XSP16, 10)
        ; Saved register size: 10
        ; Auto size: 1
        MOV     A,#-0x1
        LCALL   ?ALLOC_XSTACK8
          CFI CFA_XSP16 add(XSP16, 11)
        MOV     A,R1
        MOV     R6,A
//  424 #define RBUFSIZE 128
//  425 	(void)event;  // 故意不引用的参数，作保留用
        SJMP    ??NodeUartCallBack_0
//  426 	uint8  ch;
//  427 	static uint8 rbuf[RBUFSIZE];
//  428 	static uint8  rlen = 0;
//  429 
//  430 	while (Hal_UART_RxBufLen(port))		//计算并返回接收缓冲区的长度
//  431 	{	
//  432 		HalUARTRead (port, &ch, 1);		        //从串口读一个数据
//  433 		HalUARTWrite (port, &ch, 1);		//从串口写一个数据
//  434 		flag =  ((int)ch)-48;
//  435 		if (rlen >= RBUFSIZE) rlen = 0;		//数据长度超过最大接收缓冲大小，则缓冲区清零
//  436 		if (ch == '\r') {				//如果读到回车字符
//  437 			HalLedSet( HAL_LED_2, HAL_LED_MODE_OFF );	//关闭LED灯
??NodeUartCallBack_1:
        ; Setup parameters for call to function HalLedSet
        MOV     R2,#0x0
        MOV     R1,#0x2
        LCALL   ??HalLedSet?relay    ; Banked call to: HalLedSet
//  438 			HalLedSet( HAL_LED_2, HAL_LED_MODE_BLINK );	//使LED灯闪烁
        ; Setup parameters for call to function HalLedSet
        MOV     R2,#0x2
        MOV     R1,#0x2
        LCALL   ??HalLedSet?relay    ; Banked call to: HalLedSet
//  439 			//      zb_SendDataRequest( 0, ID_CMD_REPORT, rlen, rbuf, 0, AF_ACK_REQUEST, 0 ); 	//发送数据
//  440 
//  441 			rlen = 0;		//缓冲区清零
        MOV     DPTR,#??rlen
        CLR     A
??NodeUartCallBack_2:
        MOVX    @DPTR,A
//  442 		}
??NodeUartCallBack_0:
        ; Setup parameters for call to function Hal_UART_RxBufLen
        MOV     A,R6
        MOV     R1,A
        LCALL   ??Hal_UART_RxBufLen?relay; Banked call to: Hal_UART_RxBufLen
        MOV     ?V1,R3
        MOV     A,R2
        ORL     A,?V1
        JZ      ??NodeUartCallBack_3
        ; Setup parameters for call to function HalUARTRead
        MOV     R4,#0x1
        MOV     R5,#0x0
        MOV     R2,?XSP + 0
        MOV     R3,?XSP + 1
        MOV     A,R6
        MOV     R1,A
        LCALL   ??HalUARTRead?relay  ; Banked call to: HalUARTRead
        ; Setup parameters for call to function HalUARTWrite
        MOV     R4,#0x1
        MOV     R5,#0x0
        MOV     R2,?XSP + 0
        MOV     R3,?XSP + 1
        MOV     A,R6
        MOV     R1,A
        LCALL   ??HalUARTWrite?relay ; Banked call to: HalUARTWrite
        MOV     DPL,?XSP + 0
        MOV     DPH,?XSP + 1
        MOVX    A,@DPTR
        ADD     A,#-0x30
        MOV     R0,A
        CLR     A
        ADDC    A,#-0x1
        MOV     R1,A
        MOV     DPTR,#flag
        MOV     A,R0
        MOVX    @DPTR,A
        INC     DPTR
        MOV     A,R1
        MOVX    @DPTR,A
        MOV     DPTR,#??rlen
        MOVX    A,@DPTR
        CLR     C
        SUBB    A,#-0x80
        JC      ??NodeUartCallBack_4
        CLR     A
        MOVX    @DPTR,A
??NodeUartCallBack_4:
        MOV     DPL,?XSP + 0
        MOV     DPH,?XSP + 1
        MOVX    A,@DPTR
        XRL     A,#0xd
        JZ      ??NodeUartCallBack_1
//  443 		else
//  444 		{
//  445 			if (ch == '\n') {}
        MOVX    A,@DPTR
        XRL     A,#0xa
        JZ      ??NodeUartCallBack_0
//  446 			else
//  447 				rbuf[rlen++] = ch;
        MOVX    A,@DPTR
        PUSH    A
          CFI CFA_SP SP+-1
        MOV     DPTR,#??rlen
        MOVX    A,@DPTR
        MOV     R0,A
        MOV     A,#??rbuf & 0xff
        ADD     A,R0
        MOV     DPL,A
        CLR     A
        ADDC    A,#(??rbuf >> 8) & 0xff
        MOV     DPH,A
        POP     A
          CFI CFA_SP SP+0
        MOVX    @DPTR,A
        MOV     DPTR,#??rlen
        MOVX    A,@DPTR
        INC     A
        SJMP    ??NodeUartCallBack_2
//  448 		}  //将数据写到缓冲区
//  449 	}
//  450 }
??NodeUartCallBack_3:
        MOV     A,#0x1
        LCALL   ?DEALLOC_XSTACK8
          CFI CFA_XSP16 add(XSP16, 10)
        MOV     R7,#0x2
        LJMP    ?BANKED_LEAVE_XDATA
          CFI EndBlock cfiBlock66

        RSEG XDATA_Z:XDATA:NOROOT(0)
        DATA8
??rbuf:
        DS 128
        REQUIRE __INIT_XDATA_Z

        RSEG XDATA_Z:XDATA:NOROOT(0)
        DATA8
??rlen:
        DS 1
        REQUIRE __INIT_XDATA_Z

        RSEG XDATA_ID:CODE:NOROOT(0)
`?<Initializer for myStartRetryDelay>`:
        DATA8
        DB 10

        RSEG BANK_RELAYS:CODE:REORDER:NOROOT(0)
??zb_HandleOsalEvent?relay:
        CODE
        LCALL   ?BDISPATCH
        DATA24
        DC24    zb_HandleOsalEvent

        RSEG BANK_RELAYS:CODE:REORDER:NOROOT(0)
??zb_HanderMsg?relay:
        CODE
        LCALL   ?BDISPATCH
        DATA24
        DC24    zb_HanderMsg

        RSEG BANK_RELAYS:CODE:REORDER:NOROOT(0)
??zb_HandleKeys?relay:
        CODE
        LCALL   ?BDISPATCH
        DATA24
        DC24    zb_HandleKeys

        RSEG BANK_RELAYS:CODE:REORDER:NOROOT(0)
??zb_StartConfirm?relay:
        CODE
        LCALL   ?BDISPATCH
        DATA24
        DC24    zb_StartConfirm

        RSEG BANK_RELAYS:CODE:REORDER:NOROOT(0)
??zb_SendDataConfirm?relay:
        CODE
        LCALL   ?BDISPATCH
        DATA24
        DC24    zb_SendDataConfirm

        RSEG BANK_RELAYS:CODE:REORDER:NOROOT(0)
??zb_BindConfirm?relay:
        CODE
        LCALL   ?BDISPATCH
        DATA24
        DC24    zb_BindConfirm

        RSEG BANK_RELAYS:CODE:REORDER:NOROOT(0)
??zb_AllowBindConfirm?relay:
        CODE
        LCALL   ?BDISPATCH
        DATA24
        DC24    zb_AllowBindConfirm

        RSEG BANK_RELAYS:CODE:REORDER:NOROOT(0)
??zb_FindDeviceConfirm?relay:
        CODE
        LCALL   ?BDISPATCH
        DATA24
        DC24    zb_FindDeviceConfirm

        RSEG BANK_RELAYS:CODE:REORDER:NOROOT(0)
??zb_ReceiveDataIndication?relay:
        CODE
        LCALL   ?BDISPATCH
        DATA24
        DC24    zb_ReceiveDataIndication

        RSEG BANK_RELAYS:CODE:REORDER:NOROOT(0)
??NodeUartInit?relay:
        CODE
        LCALL   ?BDISPATCH
        DATA24
        DC24    NodeUartInit

        RSEG BANK_RELAYS:CODE:REORDER:NOROOT(0)
??NodeUartCallBack?relay:
        CODE
        LCALL   ?BDISPATCH
        DATA24
        DC24    NodeUartCallBack

        RSEG XDATA_ROM_C:CONST:REORDER:NOROOT(0)
        DATA8
`?<Constant "DEVID:%02X humidity:%...">`:
        DB "DEVID:%02X humidity:%02d temp:%02d\012"

        RSEG XDATA_ROM_C:CONST:REORDER:NOROOT(0)
        DATA8
`?<Constant "%02X%02d|%02d\\n">`:
        DB "%02X%02d|%02d\012"

        RSEG XDATA_ROM_C:CONST:REORDER:NOROOT(0)
        DATA8
`?<Constant "DEVID:%02X humenbody:...">`:
        DB "DEVID:%02X humenbody:%01d\012"

        RSEG XDATA_ROM_C:CONST:REORDER:NOROOT(0)
        DATA8
`?<Constant "%02X%02d\\n">`:
        DB "%02X%02d\012"

        RSEG XDATA_ROM_C:CONST:REORDER:NOROOT(0)
        DATA8
`?<Constant "DEVID:%02X ultrasonic...">`:
        DB "DEVID:%02X ultrasonic:%u\012"

        RSEG XDATA_ROM_C:CONST:REORDER:NOROOT(0)
        DATA8
`?<Constant "DEVID:%02X photoresis...">`:
        DB "DEVID:%02X photoresistance:%01d\012"

        RSEG XDATA_ROM_C:CONST:REORDER:NOROOT(0)
        DATA8
`?<Constant "DEVID:%02X x:%01d  y:...">`:
        DB "DEVID:%02X x:%01d  y:%01d  z:%01d\012"

        RSEG XDATA_ROM_C:CONST:REORDER:NOROOT(0)
        DATA8
`?<Constant "%02X%02d|%02d|%02d\\n">`:
        DB "%02X%02d|%02d|%02d\012"

        END
// 
// 1 317 bytes in segment BANKED_CODE
//    66 bytes in segment BANK_RELAYS
//     1 byte  in segment XDATA_I
//     1 byte  in segment XDATA_ID
//   224 bytes in segment XDATA_ROM_C
//   132 bytes in segment XDATA_Z
// 
// 1 384 bytes of CODE  memory
//   224 bytes of CONST memory
//   133 bytes of XDATA memory
//
//Errors: none
//Warnings: 5
